

                                                                allins                                                          Page 1


      Program  Variable Code              C Line Source
      -----------------------------------------------------------------------------------------------------------------------------------
      00000000 00000000                        1 !!!!!!!!!!!!!!!!!!!!!!!!!!!!!!!!!!!!!!!!!!!!!!!!!!!!!!!!!!!!!!!!!!!!!!!!!!!!!!!!
      00000000 00000000                        2 !                                                                              !
      00000000 00000000                        3 !                         Z280 ASSEMBLER TEST FILE                             !
      00000000 00000000                        4 !                                                                              !
      00000000 00000000                        5 !                      COPYRIGHT(C) 2006 S. A. MOORE                           !
      00000000 00000000                        6 !                                                                              !
      00000000 00000000                        7 ! Contains all of the z280 operations possible, in opcode numerical order.     !
      00000000 00000000                        8 ! Listing in this way has two advantages. One, it is easier to look up by      !
      00000000 00000000                        9 ! opcode, and two, it can be sorted into alphabetical order, whereas the       !
      00000000 00000000                       10 ! converse is not possible. This list was copied out of the Zilog Z280 manual. !
      00000000 00000000                       11 ! To check proper assembler operation, this file is assembled, a listing       !
      00000000 00000000                       12 ! containing all generated code is made, and the result hand checked verses    !
      00000000 00000000                       13 ! the book. Note that since the Z280 language is supposed to be totally upward !
      00000000 00000000                       14 ! compatible with the Z80, the Z80 test file should work equally well.         !
      00000000 00000000                       15 !                                                                              !
      00000000 00000000                       16 !!!!!!!!!!!!!!!!!!!!!!!!!!!!!!!!!!!!!!!!!!!!!!!!!!!!!!!!!!!!!!!!!!!!!!!!!!!!!!!!
      00000000 00000000                       17 
      00000000 00000000 00                    18  nop
      00000001 00000000 01 44 33              19  ld bc,$3344
      00000004 00000000 01 44 33              20  ldw bc,$3344
      00000007 00000000 02                    21  ld (bc),a
      00000008 00000000 03                    22  incw bc
      00000009 00000000 03                    23  inc bc
      0000000A 00000000 04                    24  inc b
      0000000B 00000000 05                    25  dec b
      0000000C 00000000 06 66                 26  ld b,$66
      0000000E 00000000 07                    27  rlca
      0000000F 00000000 08                    28  ex af,af'
      00000010 00000000 09                    29  add hl,bc
      00000011 00000000 0A                    30  ld a,(bc)
      00000012 00000000 0B                    31  dec bc
      00000013 00000000 0B                    32  decw bc
      00000014 00000000 0C                    33  inc c
      00000015 00000000 0D                    34  dec c
      00000016 00000000 0E 66                 35  ld c,$66
      00000018 00000000 0F                    36  rrca
      00000019 00000000 10 77                 37  djnz $77
      0000001B 00000000 11 44 33              38  ld de,$3344
      0000001E 00000000 11 44 33              39  ldw de,$3344
      00000021 00000000 12                    40  ld (de),a
      00000022 00000000 13                    41  inc de
      00000023 00000000 13                    42  incw de
      00000024 00000000 14                    43  inc d
      00000025 00000000 15                    44  dec d
      00000026 00000000 16 66                 45  ld d,$66
      00000028 00000000 17                    46  rla
      00000029 00000000 18 77                 47  jr $77
      0000002B 00000000 19                    48  add hl,de
      0000002C 00000000 1A                    49  ld a,(de)
      0000002D 00000000 1B                    50  dec de
      0000002E 00000000 1B                    51  decw de
      0000002F 00000000 1C                    52  inc e
      00000030 00000000 1D                    53  dec e
      00000031 00000000 1E 66                 54  ld e,$66
      00000033 00000000 1F                    55  rra
      00000034 00000000 20 77                 56  jr nz,$77
      00000036 00000000 21 44 33              57  ld hl,$3344
      00000039 00000000 21 44 33              58  lda hl,($3344)
      0000003C 00000000 21 44 33              59  ldw hl,$3344
      0000003F 00000000 22 44 33              60  ld ($3344),hl
      00000042 00000000 22 44 33              61  ldw ($3344),hl
      00000045 00000000 23                    62  incw hl
      00000046 00000000 23                    63  inc hl
      00000047 00000000 24                    64  inc h
      00000048 00000000 25                    65  dec h
      00000049 00000000 26 66                 66  ld h,$66
      0000004B 00000000 27                    67  daa
      0000004C 00000000 28 77                 68  jr z,$77
      0000004E 00000000 29                    69  add hl,hl
      0000004F 00000000 2A 44 33              70  ld hl,($3344)
      00000052 00000000 2A 44 33              71  ldw hl,($3344)
      00000055 00000000 2B                    72  dec hl
      00000056 00000000 2B                    73  decw hl
      00000057 00000000 2C                    74  inc l
      00000058 00000000 2D                    75  dec l
      00000059 00000000 2E 66                 76  ld l,$66
      0000005B 00000000 2F                    77  cpl
      0000005C 00000000 30 77                 78  jr nc,$77
      0000005E 00000000 31 44 33              79  ld sp,$3344
      00000061 00000000 31 44 33              80  ldw sp,$3344
      00000064 00000000 32 44 33              81  ld ($3344),a
      00000067 00000000 33                    82  inc sp
      00000068 00000000 33                    83  incw sp
      00000069 00000000 34                    84  inc (hl)
      0000006A 00000000 35                    85  dec (hl)
      0000006B 00000000 36 66                 86  ld (hl),$66


                                                                allins                                                          Page 2


      Program  Variable Code              C Line Source
      -----------------------------------------------------------------------------------------------------------------------------------
      0000006D 00000000 37                    87  scf
      0000006E 00000000 38 77                 88  jr c,$77
      00000070 00000000 39                    89  add hl,sp
      00000071 00000000 3A 44 33              90  ld a,($3344)
      00000074 00000000 3B                    91  dec sp
      00000075 00000000 3B                    92  decw sp
      00000076 00000000 3C                    93  inc a
      00000077 00000000 3D                    94  dec a
      00000078 00000000 3E 66                 95  ld a,$66
      0000007A 00000000 3F                    96  ccf
      0000007B 00000000 40                    97  ld b,b
      0000007C 00000000 41                    98  ld b,c
      0000007D 00000000 42                    99  ld b,d
      0000007E 00000000 43                   100  ld b,e
      0000007F 00000000 44                   101  ld b,h
      00000080 00000000 45                   102  ld b,l
      00000081 00000000 46                   103  ld b,(hl)
      00000082 00000000 47                   104  ld b,a
      00000083 00000000 48                   105  ld c,b
      00000084 00000000 49                   106  ld c,c
      00000085 00000000 4A                   107  ld c,d
      00000086 00000000 4B                   108  ld c,e
      00000087 00000000 4C                   109  ld c,h
      00000088 00000000 4D                   110  ld c,l
      00000089 00000000 4E                   111  ld c,(hl)
      0000008A 00000000 4F                   112  ld c,a
      0000008B 00000000 50                   113  ld d,b
      0000008C 00000000 51                   114  ld d,c
      0000008D 00000000 52                   115  ld d,d
      0000008E 00000000 53                   116  ld d,e
      0000008F 00000000 54                   117  ld d,h
      00000090 00000000 55                   118  ld d,l
      00000091 00000000 56                   119  ld d,(hl)
      00000092 00000000 57                   120  ld d,a
      00000093 00000000 58                   121  ld e,b
      00000094 00000000 59                   122  ld e,c
      00000095 00000000 5A                   123  ld e,d
      00000096 00000000 5B                   124  ld e,e
      00000097 00000000 5C                   125  ld e,h
      00000098 00000000 5D                   126  ld e,l
      00000099 00000000 5E                   127  ld e,(hl)
      0000009A 00000000 5F                   128  ld e,a
      0000009B 00000000 60                   129  ld h,b
      0000009C 00000000 61                   130  ld h,c
      0000009D 00000000 62                   131  ld h,d
      0000009E 00000000 63                   132  ld h,e
      0000009F 00000000 64                   133  ld h,h
      000000A0 00000000 65                   134  ld h,l
      000000A1 00000000 66                   135  ld h,(hl)
      000000A2 00000000 67                   136  ld h,a
      000000A3 00000000 68                   137  ld l,b
      000000A4 00000000 69                   138  ld l,c
      000000A5 00000000 6A                   139  ld l,d
      000000A6 00000000 6B                   140  ld l,e
      000000A7 00000000 6C                   141  ld l,h
      000000A8 00000000 6D                   142  ld l,l
      000000A9 00000000 6E                   143  ld l,(hl)
      000000AA 00000000 6F                   144  ld l,a
      000000AB 00000000 70                   145  ld (hl),b
      000000AC 00000000 71                   146  ld (hl),c
      000000AD 00000000 72                   147  ld (hl),d
      000000AE 00000000 73                   148  ld (hl),e
      000000AF 00000000 74                   149  ld (hl),h
      000000B0 00000000 75                   150  ld (hl),l
      000000B1 00000000 76                   151  halt
      000000B2 00000000 77                   152  ld (hl),a
      000000B3 00000000 78                   153  ld a,b
      000000B4 00000000 79                   154  ld a,c
      000000B5 00000000 7A                   155  ld a,d
      000000B6 00000000 7B                   156  ld a,e
      000000B7 00000000 7C                   157  ld a,h
      000000B8 00000000 7D                   158  ld a,l
      000000B9 00000000 7E                   159  ld a,(hl)
      000000BA 00000000 7F                   160  ld a,a
      000000BB 00000000 80                   161  add a,b
      000000BC 00000000 81                   162  add a,c
      000000BD 00000000 82                   163  add a,d
      000000BE 00000000 83                   164  add a,e
      000000BF 00000000 84                   165  add a,h
      000000C0 00000000 85                   166  add a,l
      000000C1 00000000 86                   167  add a,(hl)
      000000C2 00000000 87                   168  add a,a
      000000C3 00000000 88                   169  adc a,b
      000000C4 00000000 89                   170  adc a,c
      000000C5 00000000 8A                   171  adc a,d
      000000C6 00000000 8B                   172  adc a,e


                                                                allins                                                          Page 3


      Program  Variable Code              C Line Source
      -----------------------------------------------------------------------------------------------------------------------------------
      000000C7 00000000 8C                   173  adc a,h
      000000C8 00000000 8D                   174  adc a,l
      000000C9 00000000 8E                   175  adc a,(hl)
      000000CA 00000000 8F                   176  adc a,a
      000000CB 00000000 90                   177  sub a,b
      000000CC 00000000 91                   178  sub a,c
      000000CD 00000000 92                   179  sub a,d
      000000CE 00000000 93                   180  sub a,e
      000000CF 00000000 94                   181  sub a,h
      000000D0 00000000 95                   182  sub a,l
      000000D1 00000000 96                   183  sub a,(hl)
      000000D2 00000000 97                   184  sub a
      000000D3 00000000 98                   185  sbc a,b
      000000D4 00000000 99                   186  sbc a,c
      000000D5 00000000 9A                   187  sbc a,d
      000000D6 00000000 9B                   188  sbc a,e
      000000D7 00000000 9C                   189  sbc a,h
      000000D8 00000000 9D                   190  sbc a,l
      000000D9 00000000 9E                   191  sbc a,(hl)
      000000DA 00000000 9F                   192  sbc a,a
      000000DB 00000000 A0                   193  and a,b
      000000DC 00000000 A1                   194  and a,c
      000000DD 00000000 A2                   195  and a,d
      000000DE 00000000 A3                   196  and a,e
      000000DF 00000000 A4                   197  and a,h
      000000E0 00000000 A5                   198  and a,l
      000000E1 00000000 A6                   199  and a,(hl)
      000000E2 00000000 A7                   200  and a,a
      000000E3 00000000 A8                   201  xor a,b
      000000E4 00000000 A9                   202  xor a,c
      000000E5 00000000 AA                   203  xor a,d
      000000E6 00000000 AB                   204  xor a,e
      000000E7 00000000 AC                   205  xor a,h
      000000E8 00000000 AD                   206  xor a,l
      000000E9 00000000 AE                   207  xor a,(hl)
      000000EA 00000000 AF                   208  xor a,a
      000000EB 00000000 B0                   209  or a,b
      000000EC 00000000 B1                   210  or a,c
      000000ED 00000000 B2                   211  or a,d
      000000EE 00000000 B3                   212  or a,e
      000000EF 00000000 B4                   213  or a,h
      000000F0 00000000 B5                   214  or a,l
      000000F1 00000000 B6                   215  or a,(hl)
      000000F2 00000000 B7                   216  or a,a
      000000F3 00000000 B8                   217  cp a,b
      000000F4 00000000 B9                   218  cp a,c
      000000F5 00000000 BA                   219  cp a,d
      000000F6 00000000 BB                   220  cp a,e
      000000F7 00000000 BC                   221  cp a,h
      000000F8 00000000 BD                   222  cp a,l
      000000F9 00000000 BE                   223  cp a,(hl)
      000000FA 00000000 BF                   224  cp a,a
      000000FB 00000000 C0                   225  ret nz
      000000FC 00000000 C1                   226  pop bc
      000000FD 00000000 C2 44 33             227  jp nz,$3344
      00000100 00000000 C3 44 33             228  jp $3344
      00000103 00000000 C4 44 33             229  call nz,$3344
      00000106 00000000 C5                   230  push bc
      00000107 00000000 C6 66                231  add a,$66
      00000109 00000000 C7                   232  rst $00
      0000010A 00000000 C8                   233  ret z
      0000010B 00000000 C9                   234  ret
      0000010C 00000000 CA 44 33             235  jp z,$3344
      0000010F 00000000 CB 00                236  rlc b
      00000111 00000000 CB 01                237  rlc c
      00000113 00000000 CB 02                238  rlc d
      00000115 00000000 CB 03                239  rlc e
      00000117 00000000 CB 04                240  rlc h
      00000119 00000000 CB 05                241  rlc l
      0000011B 00000000 CB 06                242  rlc (hl)
      0000011D 00000000 CB 07                243  rlc a
      0000011F 00000000 CB 08                244  rrc b
      00000121 00000000 CB 09                245  rrc c
      00000123 00000000 CB 0A                246  rrc d
      00000125 00000000 CB 0B                247  rrc e
      00000127 00000000 CB 0C                248  rrc h
      00000129 00000000 CB 0D                249  rrc l
      0000012B 00000000 CB 0E                250  rrc (hl)
      0000012D 00000000 CB 0F                251  rrc a
      0000012F 00000000 CB 10                252  rl b
      00000131 00000000 CB 11                253  rl c
      00000133 00000000 CB 12                254  rl d
      00000135 00000000 CB 13                255  rl e
      00000137 00000000 CB 14                256  rl h
      00000139 00000000 CB 15                257  rl l
      0000013B 00000000 CB 16                258  rl (hl)


                                                                allins                                                          Page 4


      Program  Variable Code              C Line Source
      -----------------------------------------------------------------------------------------------------------------------------------
      0000013D 00000000 CB 17                259  rl a
      0000013F 00000000 CB 18                260  rr b
      00000141 00000000 CB 19                261  rr c
      00000143 00000000 CB 1A                262  rr d
      00000145 00000000 CB 1B                263  rr e
      00000147 00000000 CB 1C                264  rr h
      00000149 00000000 CB 1D                265  rr l
      0000014B 00000000 CB 1E                266  rr (hl)
      0000014D 00000000 CB 1F                267  rr a
      0000014F 00000000 CB 20                268  sla b
      00000151 00000000 CB 21                269  sla c
      00000153 00000000 CB 22                270  sla d
      00000155 00000000 CB 23                271  sla e
      00000157 00000000 CB 24                272  sla h
      00000159 00000000 CB 25                273  sla l
      0000015B 00000000 CB 26                274  sla (hl)
      0000015D 00000000 CB 27                275  sla a
      0000015F 00000000 CB 28                276  sra b
      00000161 00000000 CB 29                277  sra c
      00000163 00000000 CB 2A                278  sra d
      00000165 00000000 CB 2B                279  sra e
      00000167 00000000 CB 2C                280  sra h
      00000169 00000000 CB 2D                281  sra l
      0000016B 00000000 CB 2E                282  sra (hl)
      0000016D 00000000 CB 2F                283  sra a
      0000016F 00000000 CB 30                284  tset b
      00000171 00000000 CB 31                285  tset c
      00000173 00000000 CB 32                286  tset d
      00000175 00000000 CB 33                287  tset e
      00000177 00000000 CB 34                288  tset h
      00000179 00000000 CB 35                289  tset l
      0000017B 00000000 CB 36                290  tset (hl)
      0000017D 00000000 CB 37                291  tset a
      0000017F 00000000 CB 38                292  srl b
      00000181 00000000 CB 39                293  srl c
      00000183 00000000 CB 3A                294  srl d
      00000185 00000000 CB 3B                295  srl e
      00000187 00000000 CB 3C                296  srl h
      00000189 00000000 CB 3D                297  srl l
      0000018B 00000000 CB 3E                298  srl (hl)
      0000018D 00000000 CB 3F                299  srl a
      0000018F 00000000 CB 40                300  bit 0,b
      00000191 00000000 CB 41                301  bit 0,c
      00000193 00000000 CB 42                302  bit 0,d
      00000195 00000000 CB 43                303  bit 0,e
      00000197 00000000 CB 44                304  bit 0,h
      00000199 00000000 CB 45                305  bit 0,l
      0000019B 00000000 CB 46                306  bit 0,(hl)
      0000019D 00000000 CB 47                307  bit 0,a
      0000019F 00000000 CB 48                308  bit 1,b
      000001A1 00000000 CB 49                309  bit 1,c
      000001A3 00000000 CB 4A                310  bit 1,d
      000001A5 00000000 CB 4B                311  bit 1,e
      000001A7 00000000 CB 4C                312  bit 1,h
      000001A9 00000000 CB 4D                313  bit 1,l
      000001AB 00000000 CB 4E                314  bit 1,(hl)
      000001AD 00000000 CB 4F                315  bit 1,a
      000001AF 00000000 CB 50                316  bit 2,b
      000001B1 00000000 CB 51                317  bit 2,c
      000001B3 00000000 CB 52                318  bit 2,d
      000001B5 00000000 CB 53                319  bit 2,e
      000001B7 00000000 CB 54                320  bit 2,h
      000001B9 00000000 CB 55                321  bit 2,l
      000001BB 00000000 CB 56                322  bit 2,(hl)
      000001BD 00000000 CB 57                323  bit 2,a
      000001BF 00000000 CB 58                324  bit 3,b
      000001C1 00000000 CB 59                325  bit 3,c
      000001C3 00000000 CB 5A                326  bit 3,d
      000001C5 00000000 CB 5B                327  bit 3,e
      000001C7 00000000 CB 5C                328  bit 3,h
      000001C9 00000000 CB 5D                329  bit 3,l
      000001CB 00000000 CB 5E                330  bit 3,(hl)
      000001CD 00000000 CB 5F                331  bit 3,a
      000001CF 00000000 CB 60                332  bit 4,b
      000001D1 00000000 CB 61                333  bit 4,c
      000001D3 00000000 CB 62                334  bit 4,d
      000001D5 00000000 CB 63                335  bit 4,e
      000001D7 00000000 CB 64                336  bit 4,h
      000001D9 00000000 CB 65                337  bit 4,l
      000001DB 00000000 CB 66                338  bit 4,(hl)
      000001DD 00000000 CB 67                339  bit 4,a
      000001DF 00000000 CB 68                340  bit 5,b
      000001E1 00000000 CB 69                341  bit 5,c
      000001E3 00000000 CB 6A                342  bit 5,d
      000001E5 00000000 CB 6B                343  bit 5,e
      000001E7 00000000 CB 6C                344  bit 5,h


                                                                allins                                                          Page 5


      Program  Variable Code              C Line Source
      -----------------------------------------------------------------------------------------------------------------------------------
      000001E9 00000000 CB 6D                345  bit 5,l
      000001EB 00000000 CB 6E                346  bit 5,(hl)
      000001ED 00000000 CB 6F                347  bit 5,a
      000001EF 00000000 CB 70                348  bit 6,b
      000001F1 00000000 CB 71                349  bit 6,c
      000001F3 00000000 CB 72                350  bit 6,d
      000001F5 00000000 CB 73                351  bit 6,e
      000001F7 00000000 CB 74                352  bit 6,h
      000001F9 00000000 CB 75                353  bit 6,l
      000001FB 00000000 CB 76                354  bit 6,(hl)
      000001FD 00000000 CB 77                355  bit 6,a
      000001FF 00000000 CB 78                356  bit 7,b
      00000201 00000000 CB 79                357  bit 7,c
      00000203 00000000 CB 7A                358  bit 7,d
      00000205 00000000 CB 7B                359  bit 7,e
      00000207 00000000 CB 7C                360  bit 7,h
      00000209 00000000 CB 7D                361  bit 7,l
      0000020B 00000000 CB 7E                362  bit 7,(hl)
      0000020D 00000000 CB 7F                363  bit 7,a
      0000020F 00000000 CB 80                364  res 0,b
      00000211 00000000 CB 81                365  res 0,c
      00000213 00000000 CB 82                366  res 0,d
      00000215 00000000 CB 83                367  res 0,e
      00000217 00000000 CB 84                368  res 0,h
      00000219 00000000 CB 85                369  res 0,l
      0000021B 00000000 CB 86                370  res 0,(hl)
      0000021D 00000000 CB 87                371  res 0,a
      0000021F 00000000 CB 88                372  res 1,b
      00000221 00000000 CB 89                373  res 1,c
      00000223 00000000 CB 8A                374  res 1,d
      00000225 00000000 CB 8B                375  res 1,e
      00000227 00000000 CB 8C                376  res 1,h
      00000229 00000000 CB 8D                377  res 1,l
      0000022B 00000000 CB 8E                378  res 1,(hl)
      0000022D 00000000 CB 8F                379  res 1,a
      0000022F 00000000 CB 90                380  res 2,b
      00000231 00000000 CB 91                381  res 2,c
      00000233 00000000 CB 92                382  res 2,d
      00000235 00000000 CB 93                383  res 2,e
      00000237 00000000 CB 94                384  res 2,h
      00000239 00000000 CB 95                385  res 2,l
      0000023B 00000000 CB 96                386  res 2,(hl)
      0000023D 00000000 CB 97                387  res 2,a
      0000023F 00000000 CB 98                388  res 3,b
      00000241 00000000 CB 99                389  res 3,c
      00000243 00000000 CB 9A                390  res 3,d
      00000245 00000000 CB 9B                391  res 3,e
      00000247 00000000 CB 9C                392  res 3,h
      00000249 00000000 CB 9D                393  res 3,l
      0000024B 00000000 CB 9E                394  res 3,(hl)
      0000024D 00000000 CB 9F                395  res 3,a
      0000024F 00000000 CB A0                396  res 4,b
      00000251 00000000 CB A1                397  res 4,c
      00000253 00000000 CB A2                398  res 4,d
      00000255 00000000 CB A3                399  res 4,e
      00000257 00000000 CB A4                400  res 4,h
      00000259 00000000 CB A5                401  res 4,l
      0000025B 00000000 CB A6                402  res 4,(hl)
      0000025D 00000000 CB A7                403  res 4,a
      0000025F 00000000 CB A8                404  res 5,b
      00000261 00000000 CB A9                405  res 5,c
      00000263 00000000 CB AA                406  res 5,d
      00000265 00000000 CB AB                407  res 5,e
      00000267 00000000 CB AC                408  res 5,h
      00000269 00000000 CB AD                409  res 5,l
      0000026B 00000000 CB AE                410  res 5,(hl)
      0000026D 00000000 CB AF                411  res 5,a
      0000026F 00000000 CB B0                412  res 6,b
      00000271 00000000 CB B1                413  res 6,c
      00000273 00000000 CB B2                414  res 6,d
      00000275 00000000 CB B3                415  res 6,e
      00000277 00000000 CB B4                416  res 6,h
      00000279 00000000 CB B5                417  res 6,l
      0000027B 00000000 CB B6                418  res 6,(hl)
      0000027D 00000000 CB B7                419  res 6,a
      0000027F 00000000 CB B8                420  res 7,b
      00000281 00000000 CB B9                421  res 7,c
      00000283 00000000 CB BA                422  res 7,d
      00000285 00000000 CB BB                423  res 7,e
      00000287 00000000 CB BC                424  res 7,h
      00000289 00000000 CB BD                425  res 7,l
      0000028B 00000000 CB BE                426  res 7,(hl)
      0000028D 00000000 CB BF                427  res 7,a
      0000028F 00000000 CB C0                428  set 0,b
      00000291 00000000 CB C1                429  set 0,c
      00000293 00000000 CB C2                430  set 0,d


                                                                allins                                                          Page 6


      Program  Variable Code              C Line Source
      -----------------------------------------------------------------------------------------------------------------------------------
      00000295 00000000 CB C3                431  set 0,e
      00000297 00000000 CB C4                432  set 0,h
      00000299 00000000 CB C5                433  set 0,l
      0000029B 00000000 CB C6                434  set 0,(hl)
      0000029D 00000000 CB C7                435  set 0,a
      0000029F 00000000 CB C8                436  set 1,b
      000002A1 00000000 CB C9                437  set 1,c
      000002A3 00000000 CB CA                438  set 1,d
      000002A5 00000000 CB CB                439  set 1,e
      000002A7 00000000 CB CC                440  set 1,h
      000002A9 00000000 CB CD                441  set 1,l
      000002AB 00000000 CB CE                442  set 1,(hl)
      000002AD 00000000 CB CF                443  set 1,a
      000002AF 00000000 CB D0                444  set 2,b
      000002B1 00000000 CB D1                445  set 2,c
      000002B3 00000000 CB D2                446  set 2,d
      000002B5 00000000 CB D3                447  set 2,e
      000002B7 00000000 CB D4                448  set 2,h
      000002B9 00000000 CB D5                449  set 2,l
      000002BB 00000000 CB D6                450  set 2,(hl)
      000002BD 00000000 CB D7                451  set 2,a
      000002BF 00000000 CB D8                452  set 3,b
      000002C1 00000000 CB D9                453  set 3,c
      000002C3 00000000 CB DA                454  set 3,d
      000002C5 00000000 CB DB                455  set 3,e
      000002C7 00000000 CB DC                456  set 3,h
      000002C9 00000000 CB DD                457  set 3,l
      000002CB 00000000 CB DE                458  set 3,(hl)
      000002CD 00000000 CB DF                459  set 3,a
      000002CF 00000000 CB E0                460  set 4,b
      000002D1 00000000 CB E1                461  set 4,c
      000002D3 00000000 CB E2                462  set 4,d
      000002D5 00000000 CB E3                463  set 4,e
      000002D7 00000000 CB E4                464  set 4,h
      000002D9 00000000 CB E5                465  set 4,l
      000002DB 00000000 CB E6                466  set 4,(hl)
      000002DD 00000000 CB E7                467  set 4,a
      000002DF 00000000 CB E8                468  set 5,b
      000002E1 00000000 CB E9                469  set 5,c
      000002E3 00000000 CB EA                470  set 5,d
      000002E5 00000000 CB EB                471  set 5,e
      000002E7 00000000 CB EC                472  set 5,h
      000002E9 00000000 CB ED                473  set 5,l
      000002EB 00000000 CB EE                474  set 5,(hl)
      000002ED 00000000 CB EF                475  set 5,a
      000002EF 00000000 CB F0                476  set 6,b
      000002F1 00000000 CB F1                477  set 6,c
      000002F3 00000000 CB F2                478  set 6,d
      000002F5 00000000 CB F3                479  set 6,e
      000002F7 00000000 CB F4                480  set 6,h
      000002F9 00000000 CB F5                481  set 6,l
      000002FB 00000000 CB F6                482  set 6,(hl)
      000002FD 00000000 CB F7                483  set 6,a
      000002FF 00000000 CB F8                484  set 7,b
      00000301 00000000 CB F9                485  set 7,c
      00000303 00000000 CB FA                486  set 7,d
      00000305 00000000 CB FB                487  set 7,e
      00000307 00000000 CB FC                488  set 7,h
      00000309 00000000 CB FD                489  set 7,l
      0000030B 00000000 CB FE                490  set 7,(hl)
      0000030D 00000000 CB FF                491  set 7,a
      0000030F 00000000 CC 44 33             492  call z,$3344
      00000312 00000000 CD 44 33             493  call $3344
      00000315 00000000 CE 66                494  adc a,$66
      00000317 00000000 CF                   495  rst $08
      00000318 00000000 D0                   496  ret nc
      00000319 00000000 D1                   497  pop de
      0000031A 00000000 D2 44 33             498  jp nc,$3344
      0000031D 00000000 D3 66                499  out ($66),a
      0000031F 00000000 D4 44 33             500  call nc,$3344
      00000322 00000000 D5                   501  push de
      00000323 00000000 D6 66                502  sub a,$66
      00000325 00000000 D7                   503  rst $10
      00000326 00000000 D8                   504  ret c
      00000327 00000000 D9                   505  exx
      00000328 00000000 DA 44 33             506  jp c,$3344
      0000032B 00000000 DB 66                507  in a,($66)
      0000032D 00000000 DC 44 33             508  call c,$3344
      00000330 00000000 DD 01 44 33          509  ldw (hl),$3344
      00000334 00000000 DD 03                510  incw (hl)
      00000336 00000000 DD 04 22 11          511  inc (sp+$1122)
      0000033A 00000000 DD 05 22 11          512  dec (sp+$1122)
      0000033E 00000000 DD 06 22 11 66       513  ld (sp+$1122),$66
      00000343 00000000 DD 09                514  add ix,bc
      00000345 00000000 DD 0B                515  decw (hl)
      00000347 00000000 DD 0C                516  inc (hl+ix)


                                                                allins                                                          Page 7


      Program  Variable Code              C Line Source
      -----------------------------------------------------------------------------------------------------------------------------------
      00000349 00000000 DD 0D                517  dec (hl+ix)
      0000034B 00000000 DD 0E 66             518  ld (hl+ix),$66
      0000034E 00000000 DD 11 44 33 99 88    519  ldw ($3344),$8899
      00000354 00000000 DD 13 44 33          520  incw ($3344)
      00000358 00000000 DD 14                521  inc (hl+iy)
      0000035A 00000000 DD 15                522  dec (hl+iy)
      0000035C 00000000 DD 16 66             523  ld (hl+iy),$66
      0000035F 00000000 DD 19                524  add ix,de
      00000361 00000000 DD 1B 44 33          525  decw ($3344)
      00000365 00000000 DD 1C                526  inc (ix+iy)
      00000367 00000000 DD 1D                527  dec (ix+iy)
      00000369 00000000 DD 1E 66             528  ld (ix+iy),$66
      0000036C 00000000 DD 20 77             529  jar $77
      0000036F 00000000 DD 21 44 33          530  ld ix,$3344
      00000373 00000000 DD 21 44 33          531  lda ix,($3344)
      00000377 00000000 DD 21 44 33          532  ldw ix,$3344
      0000037B 00000000 DD 22 44 33          533  ld ($3344),ix
      0000037F 00000000 DD 22 44 33          534  ldw ($3344),ix
      00000383 00000000 DD 23                535  inc ix
      00000385 00000000 DD 23                536  incw ix
      00000387 00000000 DD 24                537  inc ixh
      00000389 00000000 DD 25                538  dec ixh
      0000038B 00000000 DD 26 66             539  ld ixh,$66
      0000038E 00000000 DD 28 77             540  jaf $77
      00000391 00000000 DD 29                541  add ix,ix
      00000393 00000000 DD 2A 44 33          542  ld ix,($3344)
      00000397 00000000 DD 2A 44 33          543  ldw ix,($3344)
      0000039B 00000000 DD 2B                544  dec ix
      0000039D 00000000 DD 2B                545  decw ix
      0000039F 00000000 DD 2C                546  inc ixl
      000003A1 00000000 DD 2D                547  dec ixl
      000003A3 00000000 DD 2E 66             548  ld ixl,$66
      000003A6 00000000 FD 31 22 11 44 33    549  ldw (pc+$1122),$3344
      000003AC 00000000 DD 33 22 11          550  incw (pc+$1122)
      000003B0 00000000 DD 34 55             551  inc (ix+$55)
      000003B3 00000000 DD 35 55             552  dec (ix+$55)
      000003B6 00000000 DD 36 55 66          553  ld (ix+$55),$66
      000003BA 00000000 DD 39                554  add ix,sp
      000003BC 00000000 DD 3B 22 11          555  decw (pc+$1122)
      000003C0 00000000 DD 3C 44 33          556  inc ($3344)
      000003C4 00000000 DD 3D 44 33          557  dec ($3344)
      000003C8 00000000 DD 3E 44 33 66       558  ld ($3344),$66
      000003CD 00000000 DD 44                559  ld b,ixh
      000003CF 00000000 DD 45                560  ld b,ixl
      000003D1 00000000 DD 46 55             561  ld b,(ix+$55)
      000003D4 00000000 DD 4C                562  ld c,ixh
      000003D6 00000000 DD 4D                563  ld c,ixl
      000003D8 00000000 DD 4E 55             564  ld c,(ix+$55)
      000003DB 00000000 DD 54                565  ld d,ixh
      000003DD 00000000 DD 55                566  ld d,ixl
      000003DF 00000000 DD 56 55             567  ld d,(ix+$55)
      000003E2 00000000 DD 5C                568  ld e,ixh
      000003E4 00000000 DD 5D                569  ld e,ixl
      000003E6 00000000 DD 5E 55             570  ld e,(ix+$55)
      000003E9 00000000 DD 60                571  ld ixh,b
      000003EB 00000000 DD 61                572  ld ixh,c
      000003ED 00000000 DD 62                573  ld ixh,d
      000003EF 00000000 DD 63                574  ld ixh,e
      000003F1 00000000 DD 64                575  ld ixh,ixh
      000003F3 00000000 DD 65                576  ld ixh,ixl
      000003F5 00000000 DD 66 55             577  ld h,(ix+$55)
      000003F8 00000000 DD 67                578  ld ixh,a
      000003FA 00000000 DD 68                579  ld ixl,b
      000003FC 00000000 DD 69                580  ld ixl,c
      000003FE 00000000 DD 6A                581  ld ixl,d
      00000400 00000000 DD 6B                582  ld ixl,e
      00000402 00000000 DD 6C                583  ld ixl,ixh
      00000404 00000000 DD 6D                584  ld ixl,ixl
      00000406 00000000 DD 6E 55             585  ld l,(ix+$55)
      00000409 00000000 DD 6F                586  ld ixl,a
      0000040B 00000000 DD 70 55             587  ld (ix+$55),b
      0000040E 00000000 DD 71 55             588  ld (ix+$55),c
      00000411 00000000 DD 72 55             589  ld (ix+$55),d
      00000414 00000000 DD 73 55             590  ld (ix+$55),e
      00000417 00000000 DD 74 55             591  ld (ix+$55),h
      0000041A 00000000 DD 75 55             592  ld (ix+$55),l
      0000041D 00000000 DD 77 55             593  ld (ix+$55),a
      00000420 00000000 DD 78 22 11          594  ld a,(sp+$1122)
      00000424 00000000 DD 79                595  ld a,(hl+ix)
      00000426 00000000 DD 7A                596  ld a,(hl+iy)
      00000428 00000000 DD 7B                597  ld a,(ix+iy)
      0000042A 00000000 DD 7C                598  ld a,ixh
      0000042C 00000000 DD 7D                599  ld a,ixl
      0000042E 00000000 DD 7E 55             600  ld a,(ix+$55)
      00000431 00000000 DD 80 22 11          601  add a,(sp+$1122)
      00000435 00000000 DD 81                602  add a,(hl+ix)


                                                                allins                                                          Page 8


      Program  Variable Code              C Line Source
      -----------------------------------------------------------------------------------------------------------------------------------
      00000437 00000000 DD 82                603  add a,(hl+iy)
      00000439 00000000 DD 83                604  add a,(ix+iy)
      0000043B 00000000 DD 84                605  add a,ixh
      0000043D 00000000 DD 85                606  add a,ixl
      0000043F 00000000 DD 86 55             607  add a,(ix+$55)
      00000442 00000000 DD 87 44 33          608  add a,($3344)
      00000446 00000000 DD 88 22 11          609  adc a,(sp+$1122)
      0000044A 00000000 DD 89                610  adc a,(hl+ix)
      0000044C 00000000 DD 8A                611  adc a,(hl+iy)
      0000044E 00000000 DD 8B                612  adc a,(ix+iy)
      00000450 00000000 DD 8C                613  adc a,ixh
      00000452 00000000 DD 8D                614  adc a,ixl
      00000454 00000000 DD 8E 55             615  adc a,(ix+$55)
      00000457 00000000 DD 8F 44 33          616  adc a,($3344)
      0000045B 00000000 DD 90 22 11          617  sub a,(sp+$1122)
      0000045F 00000000 DD 91                618  sub a,(hl+ix)
      00000461 00000000 DD 92                619  sub a,(hl+iy)
      00000463 00000000 DD 93                620  sub a,(ix+iy)
      00000465 00000000 DD 94                621  sub a,ixh
      00000467 00000000 DD 95                622  sub a,ixl
      00000469 00000000 DD 96 55             623  sub a,(ix+$55)
      0000046C 00000000 DD 97 44 33          624  sub a,($3344)
      00000470 00000000 DD 98 22 11          625  sbc a,(sp+$1122)
      00000474 00000000 DD 99                626  sbc a,(hl+ix)
      00000476 00000000 DD 9A                627  sbc a,(hl+iy)
      00000478 00000000 DD 9B                628  sbc a,(ix+iy)
      0000047A 00000000 DD 9C                629  sbc a,ixh
      0000047C 00000000 DD 9D                630  sbc a,ixl
      0000047E 00000000 DD 9E 55             631  sbc a,(ix+$55)
      00000481 00000000 DD 9F 44 33          632  sbc a,($3344)
      00000485 00000000 DD A0 22 11          633  and a,(sp+$1122)
      00000489 00000000 DD A1                634  and a,(hl+ix)
      0000048B 00000000 DD A2                635  and a,(hl+iy)
      0000048D 00000000 DD A3                636  and a,(ix+iy)
      0000048F 00000000 DD A4                637  and a,ixh
      00000491 00000000 DD A5                638  and a,ixl
      00000493 00000000 DD A6 55             639  and a,(ix+$55)
      00000496 00000000 DD A7 44 33          640  and a,($3344)
      0000049A 00000000 DD A8 22 11          641  xor a,(sp+$1122)
      0000049E 00000000 DD A9                642  xor a,(hl+ix)
      000004A0 00000000 DD AA                643  xor a,(hl+iy)
      000004A2 00000000 DD AB                644  xor a,(ix+iy)
      000004A4 00000000 DD AC                645  xor a,ixh
      000004A6 00000000 DD AD                646  xor a,ixl
      000004A8 00000000 DD AE 55             647  xor a,(ix+$55)
      000004AB 00000000 DD AF 44 33          648  xor a,($3344)
      000004AF 00000000 DD B0 22 11          649  or a,(sp+$1122)
      000004B3 00000000 DD B1                650  or a,(hl+ix)
      000004B5 00000000 DD B2                651  or a,(hl+iy)
      000004B7 00000000 DD B3                652  or a,(ix+iy)
      000004B9 00000000 DD B4                653  or a,ixh
      000004BB 00000000 DD B5                654  or a,ixl
      000004BD 00000000 DD B6 55             655  or a,(ix+$55)
      000004C0 00000000 DD B7 44 33          656  or a,($3344)
      000004C4 00000000 DD B8 22 11          657  cp a,(sp+$1122)
      000004C8 00000000 DD B9                658  cp a,(hl+ix)
      000004CA 00000000 DD BA                659  cp a,(hl+iy)
      000004CC 00000000 DD BB                660  cp a,(ix+iy)
      000004CE 00000000 DD BC                661  cp a,ixh
      000004D0 00000000 DD BD                662  cp a,ixl
      000004D2 00000000 DD BE 55             663  cp a,(ix+$55)
      000004D5 00000000 DD BF 44 33          664  cp a,($3344)
      000004D9 00000000 DD C1                665  pop (hl)
      000004DB 00000000 DD C2                666  jp nz,(hl)
      000004DD 00000000 DD C4                667  call nz,(hl)
      000004DF 00000000 DD C5                668  push (hl)
      000004E1 00000000 DD CA                669  jp z,(hl)
      000004E3 00000000 DD CB 55 06          670  rlc (ix+$55)
      000004E7 00000000 DD CB 55 0E          671  rrc (ix+$55)
      000004EB 00000000 DD CB 55 16          672  rl (ix+$55)
      000004EF 00000000 DD CB 55 1E          673  rr (ix+$55)
      000004F3 00000000 DD CB 55 26          674  sla (ix+$55)
      000004F7 00000000 DD CB 55 2E          675  sra (ix+$55)
      000004FB 00000000 DD CB 55 36          676  tset (ix+$55)
      000004FF 00000000 DD CB 55 3E          677  srl (ix+$55)
      00000503 00000000 DD CB 55 46          678  bit 0,(ix+$55)
      00000507 00000000 DD CB 55 4E          679  bit 1,(ix+$55)
      0000050B 00000000 DD CB 55 56          680  bit 2,(ix+$55)
      0000050F 00000000 DD CB 55 5E          681  bit 3,(ix+$55)
      00000513 00000000 DD CB 55 66          682  bit 4,(ix+$55)
      00000517 00000000 DD CB 55 6E          683  bit 5,(ix+$55)
      0000051B 00000000 DD CB 55 76          684  bit 6,(ix+$55)
      0000051F 00000000 DD CB 55 7E          685  bit 7,(ix+$55)
      00000523 00000000 DD CB 55 86          686  res 0,(ix+$55)
      00000527 00000000 DD CB 55 8E          687  res 1,(ix+$55)
      0000052B 00000000 DD CB 55 96          688  res 2,(ix+$55)


                                                                allins                                                          Page 9


      Program  Variable Code              C Line Source
      -----------------------------------------------------------------------------------------------------------------------------------
      0000052F 00000000 DD CB 55 9E          689  res 3,(ix+$55)
      00000533 00000000 DD CB 55 A6          690  res 4,(ix+$55)
      00000537 00000000 DD CB 55 AE          691  res 5,(ix+$55)
      0000053B 00000000 DD CB 55 B6          692  res 6,(ix+$55)
      0000053F 00000000 DD CB 55 BE          693  res 7,(ix+$55)
      00000543 00000000 DD CB 55 C6          694  set 0,(ix+$55)
      00000547 00000000 DD CB 55 CE          695  set 1,(ix+$55)
      0000054B 00000000 DD CB 55 D6          696  set 2,(ix+$55)
      0000054F 00000000 DD CB 55 DE          697  set 3,(ix+$55)
      00000553 00000000 DD CB 55 E6          698  set 4,(ix+$55)
      00000557 00000000 DD CB 55 EE          699  set 5,(ix+$55)
      0000055B 00000000 DD CB 55 F6          700  set 6,(ix+$55)
      0000055F 00000000 DD CB 55 FE          701  set 7,(ix+$55)
      00000563 00000000 DD CC                702  call z,(hl)
      00000565 00000000 DD CD                703  call (hl)
      00000567 00000000 DD D1 44 33          704  pop ($3344)
      0000056B 00000000 DD D2                705  jp nc,(hl)
      0000056D 00000000 DD D4                706  call nc,(hl)
      0000056F 00000000 DD D5 44 33          707  push ($3344)
      00000573 00000000 DD DA                708  jp c,(hl)
      00000575 00000000 DD DC                709  call c,(hl)
      00000577 00000000 DD E1                710  pop ix
      00000579 00000000 DD E2                711  jp po,(hl)
      0000057B 00000000 DD E3                712  ex (sp),ix
      0000057D 00000000 DD E4                713  call po,(hl)
      0000057F 00000000 DD E5                714  push ix
      00000581 00000000 DD E9                715  jp (ix)
      00000583 00000000 DD EA                716  jp pe,(hl)
      00000585 00000000 DD EB                717  ex ix,hl
      00000587 00000000 DD EC                718  call pe,(hl)
      00000589 00000000 DD ED 02 22 11       719  lda ix,(sp+$1122)
      0000058E 00000000 DD ED 04 22 11       720  ld ix,(sp+$1122)
      00000593 00000000 DD ED 04 22 11       721  ldw ix,(sp+$1122)
      00000598 00000000 DD ED 05 22 11       722  ld (sp+$1122),ix
      0000059D 00000000 DD ED 05 22 11       723  ldw (sp+$1122),ix
      000005A2 00000000 DD ED 06 55          724  ld bc,(ix+$55)
      000005A6 00000000 DD ED 06 55          725  ldw bc,(ix+$55)
      000005AA 00000000 DD ED 07 22 11       726  ex a,(sp+$1122)
      000005AF 00000000 DD ED 0A             727  lda ix,(hl+ix)
      000005B2 00000000 DD ED 0C             728  ld ix,(hl+ix)
      000005B5 00000000 DD ED 0C             729  ldw ix,(hl+ix)
      000005B8 00000000 DD ED 0D             730  ld (hl+ix),ix
      000005BB 00000000 DD ED 0D             731  ldw (hl+ix),ix
      000005BE 00000000 DD ED 0E 55          732  ld (ix+$55),bc
      000005C2 00000000 DD ED 0E 55          733  ldw (ix+$55),bc
      000005C6 00000000 DD ED 0F             734  ex a,(hl+ix)
      000005C9 00000000 DD ED 12             735  lda ix,(hl+iy)
      000005CC 00000000 DD ED 14             736  ld ix,(hl+iy)
      000005CF 00000000 DD ED 14             737  ldw ix,(hl+iy)
      000005D2 00000000 DD ED 15             738  ld (hl+iy),ix
      000005D5 00000000 DD ED 15             739  ldw (hl+iy),ix
      000005D8 00000000 DD ED 16 55          740  ld de,(ix+$55)
      000005DC 00000000 DD ED 16 55          741  ldw de,(ix+$55)
      000005E0 00000000 DD ED 17             742  ex a,(hl+iy)
      000005E3 00000000 DD ED 1A             743  lda ix,(ix+iy)
      000005E6 00000000 DD ED 1C             744  ld ix,(ix+iy)
      000005E9 00000000 DD ED 1C             745  ldw ix,(ix+iy)
      000005EC 00000000 DD ED 1D             746  ld (ix+iy),ix
      000005EF 00000000 DD ED 1D             747  ldw (ix+iy),ix
      000005F2 00000000 DD ED 1E 55          748  ld (ix+$55),de
      000005F6 00000000 DD ED 1E 55          749  ldw (ix+$55),de
      000005FA 00000000 DD ED 1F             750  ex a,(ix+iy)
      000005FD 00000000 DD ED 22 22 11       751  lda ix,(pc+$1122)
      00000602 00000000 DD ED 24 22 11       752  ld ix,(pc+$1122)
      00000607 00000000 DD ED 24 22 11       753  ldw ix,(pc+$1122)
      0000060C 00000000 DD ED 25 22 11       754  ld (pc+$1122),ix
      00000611 00000000 DD ED 25 22 11       755  ldw (pc+$1122),ix
      00000616 00000000 DD ED 26 55          756  ld hl,(ix+$55)
      0000061A 00000000 DD ED 26 55          757  ldw hl,(ix+$55)
      0000061E 00000000 DD ED 27             758  ex a,ixh
      00000621 00000000 DD ED 2A 22 11       759  lda ix,(ix+$1122)
      00000626 00000000 DD ED 2C 22 11       760  ld ix,(ix+$1122)
      0000062B 00000000 DD ED 2C 22 11       761  ldw ix,(ix+$1122)
      00000630 00000000 DD ED 2D 22 11       762  ld (ix+$1122),ix
      00000635 00000000 DD ED 2D 22 11       763  ldw (ix+$1122),ix
      0000063A 00000000 DD ED 2E 55          764  ld (ix+$55),hl
      0000063E 00000000 DD ED 2E 55          765  ldw (ix+$55),hl
      00000642 00000000 DD ED 2F             766  ex a,ixl
      00000645 00000000 DD ED 32 22 11       767  lda ix,(iy+$1122)
      0000064A 00000000 DD ED 34 22 11       768  ld ix,(iy+$1122)
      0000064F 00000000 DD ED 34 22 11       769  ldw ix,(iy+$1122)
      00000654 00000000 DD ED 35 22 11       770  ld (iy+$1122),ix
      00000659 00000000 DD ED 35 22 11       771  ldw (iy+$1122),ix
      0000065E 00000000 DD ED 36 55          772  ld sp,(ix+$55)
      00000662 00000000 DD ED 36 55          773  ldw sp,(ix+$55)
      00000666 00000000 DD ED 37 55          774  ex a,(ix+$55)


                                                                allins                                                          Page 10


      Program  Variable Code              C Line Source
      -----------------------------------------------------------------------------------------------------------------------------------
      0000066A 00000000 DD ED 3A 22 11       775  lda ix,(hl+$1122)
      0000066F 00000000 DD ED 3C 22 11       776  ld ix,(hl+$1122)
      00000674 00000000 DD ED 3C 22 11       777  ldw ix,(hl+$1122)
      00000679 00000000 DD ED 3D 22 11       778  ld (hl+$1122),ix
      0000067E 00000000 DD ED 3D 22 11       779  ldw (hl+$1122),ix
      00000683 00000000 DD ED 3E 55          780  ld (ix+$55),sp
      00000687 00000000 DD ED 3E 55          781  ldw (ix+$55),sp
      0000068B 00000000 DD ED 3F 44 33       782  ex a,($3344)
      00000690 00000000 DD ED 40 22 11       783  in (sp+$1122),(c)
      00000695 00000000 DD ED 41 22 11       784  out (c),(sp+$1122)
      0000069A 00000000 DD ED 42             785  sbc ix,bc
      0000069D 00000000 DD ED 48             786  in (hl+ix),(c)
      000006A0 00000000 DD ED 49             787  out (c),(hl+ix)
      000006A3 00000000 DD ED 4A             788  adc ix,bc
      000006A6 00000000 DD ED 50             789  in (hl+iy),(c)
      000006A9 00000000 DD ED 51             790  out (c),(hl+iy)
      000006AC 00000000 DD ED 52             791  sbc ix,de
      000006AF 00000000 DD ED 58             792  in (ix+iy),(c)
      000006B2 00000000 DD ED 59             793  out (c),(ix+iy)
      000006B5 00000000 DD ED 5A             794  adc ix,de
      000006B8 00000000 DD ED 60             795  in ixh,(c)
      000006BB 00000000 DD ED 61             796  out (c),ixh
      000006BE 00000000 DD ED 62             797  sbc ix,ix
      000006C1 00000000 DD ED 66             798  ldctl ix,(c)
      000006C4 00000000 DD ED 68             799  in ixl,(c)
      000006C7 00000000 DD ED 69             800  out (c),ixl
      000006CA 00000000 DD ED 6A             801  adc ix,ix
      000006CD 00000000 DD ED 6D             802  add ix,a
      000006D0 00000000 DD ED 6E             803  ldctl (c),ix
      000006D3 00000000 DD ED 72             804  sbc ix,sp
      000006D6 00000000 DD ED 78 44 33       805  in ($3344),(c)
      000006DB 00000000 DD ED 79 44 33       806  out (c),($3344)
      000006E0 00000000 DD ED 7A             807  adc ix,sp
      000006E3 00000000 DD ED 86 55          808  ldud a,(ix+$55)
      000006E7 00000000 DD ED 87             809  ldctl ix,usp
      000006EA 00000000 DD ED 8E 55          810  ldud (ix+$55),a
      000006EE 00000000 DD ED 8F             811  ldctl usp,ix
      000006F1 00000000 DD ED 96 55          812  ldup a,(ix+$55)
      000006F5 00000000 DD ED 9E 55          813  ldup (ix+$55),a
      000006F9 00000000 DD ED C0 22 11       814  mult a,(sp+$1122)
      000006FE 00000000 DD ED C1 22 11       815  multu a,(sp+$1122)
      00000703 00000000 DD ED C2             816  multw hl,(hl)
      00000706 00000000 DD ED C3             817  multuw hl,(hl)
      00000709 00000000 DD ED C4 22 11       818  div hl,(sp+$1122)
      0000070E 00000000 DD ED C5 22 11       819  divu hl,(sp+$1122)
      00000713 00000000 DD ED C6             820  addw hl,(hl)
      00000716 00000000 DD ED C7             821  cpw hl,(hl)
      00000719 00000000 DD ED C8             822  mult a,(hl+ix)
      0000071C 00000000 DD ED C9             823  multu a,(hl+ix)
      0000071F 00000000 DD ED CA             824  divw dehl,(hl)
      00000722 00000000 DD ED CB             825  divuw dehl,(hl)
      00000725 00000000 DD ED CC             826  div hl,(hl+ix)
      00000728 00000000 DD ED CD             827  divu hl,(hl+ix)
      0000072B 00000000 DD ED CE             828  subw hl,(hl)
      0000072E 00000000 DD ED D0             829  mult a,(hl+iy)
      00000731 00000000 DD ED D1             830  multu a,(hl+iy)
      00000734 00000000 DD ED D2 44 33       831  multw hl,($3344)
      00000739 00000000 DD ED D3 44 33       832  multuw hl,($3344)
      0000073E 00000000 DD ED D4             833  div hl,(hl+iy)
      00000741 00000000 DD ED D5             834  divu hl,(hl+iy)
      00000744 00000000 DD ED D6 44 33       835  addw hl,($3344)
      00000749 00000000 DD ED D7 44 33       836  cpw hl,($3344)
      0000074E 00000000 DD ED D8             837  mult a,(ix+iy)
      00000751 00000000 DD ED D9             838  multu a,(ix+iy)
      00000754 00000000 DD ED DA 44 33       839  divw dehl,($3344)
      00000759 00000000 DD ED DB 44 33       840  divuw dehl,($3344)
      0000075E 00000000 DD ED DC             841  div hl,(ix+iy)
      00000761 00000000 DD ED DD             842  divu hl,(ix+iy)
      00000764 00000000 DD ED DE 44 33       843  subw hl,($3344)
      00000769 00000000 DD ED E0             844  mult a,ixh
      0000076C 00000000 DD ED E1             845  multu a,ixh
      0000076F 00000000 DD ED E2             846  multw hl,ix
      00000772 00000000 DD ED E3             847  multuw hl,ix
      00000775 00000000 DD ED E4             848  div hl,ixh
      00000778 00000000 DD ED E5             849  divu hl,ixh
      0000077B 00000000 DD ED E6             850  addw hl,ix
      0000077E 00000000 DD ED E7             851  cpw hl,ix
      00000781 00000000 DD ED E8             852  mult a,ixl
      00000784 00000000 DD ED E9             853  multu a,ixl
      00000787 00000000 DD ED EA             854  divw dehl,ix
      0000078A 00000000 DD ED EB             855  divuw dehl,ix
      0000078D 00000000 DD ED EC             856  div hl,ixl
      00000790 00000000 DD ED ED             857  divu hl,ixl
      00000793 00000000 DD ED EE             858  subw hl,ix
      00000796 00000000 DD ED F0 55          859  mult a,(ix+$55)
      0000079A 00000000 DD ED F1 55          860  multu a,(ix+$55)


                                                                allins                                                          Page 11


      Program  Variable Code              C Line Source
      -----------------------------------------------------------------------------------------------------------------------------------
      0000079E 00000000 DD ED F2 22 11       861  multw hl,(pc+$1122)
      000007A3 00000000 DD ED F3 22 11       862  multuw hl,(pc+$1122)
      000007A8 00000000 DD ED F4 55          863  div hl,(ix+$55)
      000007AC 00000000 DD ED F5 55          864  divu hl,(ix+$55)
      000007B0 00000000 DD ED F6 22 11       865  addw hl,(pc+$1122)
      000007B5 00000000 DD ED F7 22 11       866  cpw hl,(pc+$1122)
      000007BA 00000000 DD ED F8 44 33       867  mult a,($3344)
      000007BF 00000000 DD ED F9 44 33       868  multu a,($3344)
      000007C4 00000000 DD ED FA 22 11       869  divw dehl,(pc+$1122)
      000007C9 00000000 DD ED FB 22 11       870  divuw dehl,(pc+$1122)
      000007CE 00000000 DD ED FC 44 33       871  div hl,($3344)
      000007D3 00000000 DD ED FD 44 33       872  divu hl,($3344)
      000007D8 00000000 DD ED FE 22 11       873  subw hl,(pc+$1122)
      000007DD 00000000 DD F1 22 11          874  pop (pc+$1122)
      000007E1 00000000 DD F2                875  jp p,(hl)
      000007E3 00000000 DD F4                876  call p,(hl)
      000007E5 00000000 DD F5 22 11          877  push (pc+$1122)
      000007E9 00000000 DD F9                878  ldw sp,ix
      000007EB 00000000 DD F9                879  ld sp,ix
      000007ED 00000000 DD FA                880  jp m,(hl)
      000007EF 00000000 DD FC                881  call m,(hl)
      000007F1 00000000 DE 66                882  sbc a,$66
      000007F3 00000000 DF                   883  rst $18
      000007F4 00000000 E0                   884  ret po
      000007F5 00000000 E1                   885  pop hl
      000007F6 00000000 E2 44 33             886  jp po,$3344
      000007F9 00000000 E3                   887  ex (sp),hl
      000007FA 00000000 E4 44 33             888  call po,$3344
      000007FD 00000000 E5                   889  push hl
      000007FE 00000000 E6 66                890  and $66
      00000800 00000000 E7                   891  rst $20
      00000801 00000000 E8                   892  ret pe
      00000802 00000000 E9                   893  jp (hl)
      00000803 00000000 EA 44 33             894  jp pe,$3344
      00000806 00000000 EB                   895  ex de,hl
      00000807 00000000 EC 44 33             896  call pe,$3344
      0000080A 00000000 ED 02 22 11          897  lda hl,(sp+$1122)
      0000080E 00000000 ED 03 22 11          898  ld (sp+$1122),a
      00000812 00000000 ED 04 22 11          899  ld hl,(sp+$1122)
      00000816 00000000 ED 04 22 11          900  ldw hl,(sp+$1122)
      0000081A 00000000 ED 05 22 11          901  ld (sp+$1122),hl
      0000081E 00000000 ED 05 22 11          902  ldw (sp+$1122),hl
      00000822 00000000 ED 06                903  ld bc,(hl)
      00000824 00000000 ED 06                904  ldw bc,(hl)
      00000826 00000000 ED 07                905  ex a,b
      00000828 00000000 ED 0A                906  lda hl,(hl+ix)
      0000082A 00000000 ED 0B                907  ld (hl+ix),a
      0000082C 00000000 ED 0C                908  ld hl,(hl+ix)
      0000082E 00000000 ED 0C                909  ldw hl,(hl+ix)
      00000830 00000000 ED 0D                910  ld (hl+ix),hl
      00000832 00000000 ED 0D                911  ldw (hl+ix),hl
      00000834 00000000 ED 0E                912  ld (hl),bc
      00000836 00000000 ED 0E                913  ldw (hl),bc
      00000838 00000000 ED 0F                914  ex a,c
      0000083A 00000000 ED 12                915  lda hl,(hl+iy)
      0000083C 00000000 ED 13                916  ld (hl+iy),a
      0000083E 00000000 ED 14                917  ld hl,(hl+iy)
      00000840 00000000 ED 14                918  ldw hl,(hl+iy)
      00000842 00000000 ED 15                919  ld (hl+iy),hl
      00000844 00000000 ED 15                920  ldw (hl+iy),hl
      00000846 00000000 ED 16                921  ld de,(hl)
      00000848 00000000 ED 16                922  ldw de,(hl)
      0000084A 00000000 ED 17                923  ex a,d
      0000084C 00000000 ED 1A                924  lda hl,(ix+iy)
      0000084E 00000000 ED 1B                925  ld (ix+iy),a
      00000850 00000000 ED 1C                926  ld hl,(ix+iy)
      00000852 00000000 ED 1C                927  ldw hl,(ix+iy)
      00000854 00000000 ED 1D                928  ld (ix+iy),hl
      00000856 00000000 ED 1D                929  ldw (ix+iy),hl
      00000858 00000000 ED 1E                930  ld (hl),de
      0000085A 00000000 ED 1E                931  ldw (hl),de
      0000085C 00000000 ED 1F                932  ex a,e
      0000085E 00000000 ED 22 22 11          933  lda hl,(pc+$1122)
      00000862 00000000 ED 23 22 11          934  ld (pc+$1122),a
      00000866 00000000 ED 24 22 11          935  ld hl,(pc+$1122)
      0000086A 00000000 ED 24 22 11          936  ldw hl,(pc+$1122)
      0000086E 00000000 ED 25 22 11          937  ld (pc+$1122),hl
      00000872 00000000 ED 25 22 11          938  ldw (pc+$1122),hl
      00000876 00000000 ED 26                939  ld hl,(hl)
      00000878 00000000 ED 26                940  ldw hl,(hl)
      0000087A 00000000 ED 27                941  ex a,h
      0000087C 00000000 ED 2A 22 11          942  lda hl,(ix+$1122)
      00000880 00000000 ED 2B 22 11          943  ld (ix+$1122),a
      00000884 00000000 ED 2C 22 11          944  ld hl,(ix+$1122)
      00000888 00000000 ED 2C 22 11          945  ldw hl,(ix+$1122)
      0000088C 00000000 ED 2D 22 11          946  ld (ix+$1122),hl


                                                                allins                                                          Page 12


      Program  Variable Code              C Line Source
      -----------------------------------------------------------------------------------------------------------------------------------
      00000890 00000000 ED 2D 22 11          947  ldw (ix+$1122),hl
      00000894 00000000 ED 2E                948  ld (hl),hl
      00000896 00000000 ED 2E                949  ldw (hl),hl
      00000898 00000000 ED 2F                950  ex a,l
      0000089A 00000000 ED 32 22 11          951  lda hl,(iy+$1122)
      0000089E 00000000 ED 33 22 11          952  ld (iy+$1122),a
      000008A2 00000000 ED 34 22 11          953  ld hl,(iy+$1122)
      000008A6 00000000 ED 34 22 11          954  ldw hl,(iy+$1122)
      000008AA 00000000 ED 35 22 11          955  ld (iy+$1122),hl
      000008AE 00000000 ED 35 22 11          956  ldw (iy+$1122),hl
      000008B2 00000000 ED 36                957  ld sp,(hl)
      000008B4 00000000 ED 36                958  ldw sp,(hl)
      000008B6 00000000 ED 37                959  ex a,(hl)
      000008B8 00000000 ED 3A 22 11          960  lda hl,(hl+$1122)
      000008BC 00000000 ED 3B 22 11          961  ld (hl+$1122),a
      000008C0 00000000 ED 3C 22 11          962  ldw hl,(hl+$1122)
      000008C4 00000000 ED 3D 22 11          963  ld (hl+$1122),hl
      000008C8 00000000 ED 3D 22 11          964  ldw (hl+$1122),hl
      000008CC 00000000 ED 3E                965  ld (hl),sp
      000008CE 00000000 ED 3E                966  ldw (hl),sp
      000008D0 00000000 ED 3F                967  ex a,a
      000008D2 00000000 ED 40                968  in b,(c)
      000008D4 00000000 ED 41                969  out (c),b
      000008D6 00000000 ED 42                970  sbc hl,bc
      000008D8 00000000 ED 43 44 33          971  ld ($3344),bc
      000008DC 00000000 ED 43 44 33          972  ldw ($3344),bc
      000008E0 00000000 ED 44                973  neg a
      000008E2 00000000 ED 45                974  retn
      000008E4 00000000 ED 46                975  im 0
      000008E6 00000000 ED 47                976  ld i,a
      000008E8 00000000 ED 48                977  in c,(c)
      000008EA 00000000 ED 49                978  out (c),c
      000008EC 00000000 ED 4A                979  adc hl,bc
      000008EE 00000000 ED 4B 44 33          980  ld bc,($3344)
      000008F2 00000000 ED 4B 44 33          981  ldw bc,($3344)
      000008F6 00000000 ED 4C                982  neg hl
      000008F8 00000000 ED 4D                983  reti
      000008FA 00000000 ED 4E                984  im 3
      000008FC 00000000 ED 4F                985  ld r,a
      000008FE 00000000 ED 50                986  in d,(c)
      00000900 00000000 ED 51                987  out (c),d
      00000902 00000000 ED 52                988  sbc hl,de
      00000904 00000000 ED 53 44 33          989  ld ($3344),de
      00000908 00000000 ED 53 44 33          990  ldw ($3344),de
      0000090C 00000000 ED 55                991  retil
      0000090E 00000000 ED 56                992  im 1
      00000910 00000000 ED 57                993  ld a,i
      00000912 00000000 ED 58                994  in e,(c)
      00000914 00000000 ED 59                995  out (c),e
      00000916 00000000 ED 5A                996  adc hl,de
      00000918 00000000 ED 5B 44 33          997  ld de,($3344)
      0000091C 00000000 ED 5B 44 33          998  ldw de,($3344)
      00000920 00000000 ED 5E                999  im 2
      00000922 00000000 ED 5F               1000  ld a,r
      00000924 00000000 ED 60               1001  in h,(c)
      00000926 00000000 ED 61               1002  out (c),h
      00000928 00000000 ED 62               1003  sbc hl,hl
      0000092A 00000000 ED 64               1004  exts a
      0000092C 00000000 ED 65               1005  pcache
      0000092E 00000000 ED 66               1006  ldctl hl,(c)
      00000930 00000000 ED 67               1007  rrd
      00000932 00000000 ED 68               1008  in l,(c)
      00000934 00000000 ED 69               1009  out (c),l
      00000936 00000000 ED 6A               1010  adc hl,hl
      00000938 00000000 ED 6C               1011  exts hl
      0000093A 00000000 ED 6D               1012  add hl,a
      0000093C 00000000 ED 6E               1013  ldctl (c),hl
      0000093E 00000000 ED 6F               1014  rld
      00000940 00000000 ED 70               1015  tsti (c)
      00000942 00000000 ED 71 44 33         1016  sc $3344
      00000946 00000000 ED 72               1017  sbc hl,sp
      00000948 00000000 ED 73 44 33         1018  ld ($3344),sp
      0000094C 00000000 ED 73 44 33         1019  ldw ($3344),sp
      00000950 00000000 ED 77 66            1020  di $66
      00000953 00000000 ED 78               1021  in a,(c)
      00000955 00000000 ED 79               1022  out (c),a
      00000957 00000000 ED 7A               1023  adc hl,sp
      00000959 00000000 ED 7B 44 33         1024  ld sp,($3344)
      0000095D 00000000 ED 7B 44 33         1025  ldw sp,($3344)
      00000961 00000000 ED 7F 66            1026  ei $66
      00000964 00000000 ED 82               1027  iniw
      00000966 00000000 ED 83               1028  outiw
      00000968 00000000 ED 84 22 11         1029  epum (sp+$1122)
      0000096C 00000000 ED 85 22 11         1030  mepu (sp+$1122)
      00000970 00000000 ED 86               1031  ldud a,(hl)
      00000972 00000000 ED 87               1032  ldctl hl,usp


                                                                allins                                                          Page 13


      Program  Variable Code              C Line Source
      -----------------------------------------------------------------------------------------------------------------------------------
      00000974 00000000 ED 8A               1033  indw
      00000976 00000000 ED 8B               1034  outdw
      00000978 00000000 ED 8C               1035  epum (hl+ix)
      0000097A 00000000 ED 8D               1036  mepu (hl+ix)
      0000097C 00000000 ED 8E               1037  ldud (hl),a
      0000097E 00000000 ED 8F               1038  ldctl usp,hl
      00000980 00000000 ED 92               1039  inirw
      00000982 00000000 ED 93               1040  otirw
      00000984 00000000 ED 94               1041  epum (hl+iy)
      00000986 00000000 ED 95               1042  mepu (hl+iy)
      00000988 00000000 ED 96               1043  ldup a,(hl)
      0000098A 00000000 ED 97               1044  epuf
      0000098C 00000000 ED 9A               1045  indrw
      0000098E 00000000 ED 9B               1046  otdrw
      00000990 00000000 ED 9C               1047  epum (ix+iy)
      00000992 00000000 ED 9D               1048  mepu (ix+iy)
      00000994 00000000 ED 9E               1049  ldup (hl),a
      00000996 00000000 ED 9F               1050  epui
      00000998 00000000 ED A0               1051  ldi
      0000099A 00000000 ED A1               1052  cpi
      0000099C 00000000 ED A2               1053  ini
      0000099E 00000000 ED A3               1054  outi
      000009A0 00000000 ED A4 22 11         1055  epum (pc+$1122)
      000009A4 00000000 ED A5 22 11         1056  mepu (pc+$1122)
      000009A8 00000000 ED A6               1057  epum (hl)
      000009AA 00000000 ED A7 44 33         1058  epum ($3344)
      000009AE 00000000 ED A8               1059  ldd
      000009B0 00000000 ED A9               1060  cpd
      000009B2 00000000 ED AA               1061  ind
      000009B4 00000000 ED AB               1062  outd
      000009B6 00000000 ED AC 22 11         1063  epum (ix+$1122)
      000009BA 00000000 ED AD 22 11         1064  mepu (ix+$1122)
      000009BE 00000000 ED AE               1065  mepu (hl)
      000009C0 00000000 ED AF 44 33         1066  mepu ($3344)
      000009C4 00000000 ED B0               1067  ldir
      000009C6 00000000 ED B1               1068  cpir
      000009C8 00000000 ED B2               1069  inir
      000009CA 00000000 ED B3               1070  otir
      000009CC 00000000 ED B4 22 11         1071  epum (iy+$1122)
      000009D0 00000000 ED B5 22 11         1072  mepu (iy+$1122)
      000009D4 00000000 ED B7               1073  in hl,(c)
      000009D6 00000000 ED B7               1074  inw hl,(c)
      000009D8 00000000 ED B8               1075  lddr
      000009DA 00000000 ED B9               1076  cpdr
      000009DC 00000000 ED BA               1077  indr
      000009DE 00000000 ED BB               1078  otdr
      000009E0 00000000 ED BC 22 11         1079  epum (hl+$1122)
      000009E4 00000000 ED BD 22 11         1080  mepu (hl+$1122)
      000009E8 00000000 ED BF               1081  out (c),hl
      000009EA 00000000 ED BF               1082  outw (c),hl
      000009EC 00000000 ED C0               1083  mult a,b
      000009EE 00000000 ED C1               1084  multu a,b
      000009F0 00000000 ED C2               1085  multw hl,bc
      000009F2 00000000 ED C3               1086  multuw hl,bc
      000009F4 00000000 ED C4               1087  div hl,b
      000009F6 00000000 ED C5               1088  divu hl,b
      000009F8 00000000 ED C6               1089  addw hl,bc
      000009FA 00000000 ED C7               1090  cpw hl,bc
      000009FC 00000000 ED C8               1091  mult a,c
      000009FE 00000000 ED C9               1092  multu a,c
      00000A00 00000000 ED CA               1093  divw dehl,bc
      00000A02 00000000 ED CB               1094  divuw dehl,bc
      00000A04 00000000 ED CC               1095  div hl,c
      00000A06 00000000 ED CD               1096  divu hl,c
      00000A08 00000000 ED CE               1097  subw hl,bc
      00000A0A 00000000 ED D0               1098  mult a,d
      00000A0C 00000000 ED D1               1099  multu a,d
      00000A0E 00000000 ED D2               1100  multw hl,de
      00000A10 00000000 ED D3               1101  multuw hl,de
      00000A12 00000000 ED D4               1102  div hl,d
      00000A14 00000000 ED D5               1103  divu hl,d
      00000A16 00000000 ED D6               1104  addw hl,de
      00000A18 00000000 ED D7               1105  cpw hl,de
      00000A1A 00000000 ED D8               1106  mult a,e
      00000A1C 00000000 ED D9               1107  multu a,e
      00000A1E 00000000 ED DA               1108  divw dehl,de
      00000A20 00000000 ED DB               1109  divuw dehl,de
      00000A22 00000000 ED DC               1110  div hl,e
      00000A24 00000000 ED DD               1111  divu hl,e
      00000A26 00000000 ED DE               1112  subw hl,de
      00000A28 00000000 ED E0               1113  mult a,h
      00000A2A 00000000 ED E1               1114  multu a,h
      00000A2C 00000000 ED E2               1115  multw hl,hl
      00000A2E 00000000 ED E3               1116  multuw hl,hl
      00000A30 00000000 ED E4               1117  div hl,h
      00000A32 00000000 ED E5               1118  divu hl,h


                                                                allins                                                          Page 14


      Program  Variable Code              C Line Source
      -----------------------------------------------------------------------------------------------------------------------------------
      00000A34 00000000 ED E6               1119  addw hl,hl
      00000A36 00000000 ED E7               1120  cpw hl,hl
      00000A38 00000000 ED E8               1121  mult a,l
      00000A3A 00000000 ED E9               1122  multu a,l
      00000A3C 00000000 ED EA               1123  divw dehl,hl
      00000A3E 00000000 ED EB               1124  divuw dehl,hl
      00000A40 00000000 ED EC               1125  div hl,l
      00000A42 00000000 ED ED               1126  divu hl,l
      00000A44 00000000 ED EE               1127  subw hl,hl
      00000A46 00000000 ED EF               1128  ex h,l
      00000A48 00000000 ED F0               1129  mult a,(hl)
      00000A4A 00000000 ED F1               1130  multu a,(hl)
      00000A4C 00000000 ED F2               1131  multw hl,sp
      00000A4E 00000000 ED F3               1132  multuw hl,sp
      00000A50 00000000 ED F4               1133  div hl,(hl)
      00000A52 00000000 ED F5               1134  divu hl,(hl)
      00000A54 00000000 ED F6               1135  addw hl,sp
      00000A56 00000000 ED F7               1136  cpw hl,sp
      00000A58 00000000 ED F8               1137  mult a,a
      00000A5A 00000000 ED F9               1138  multu a,a
      00000A5C 00000000 ED FA               1139  divw dehl,sp
      00000A5E 00000000 ED FB               1140  divuw dehl,sp
      00000A60 00000000 ED FC               1141  div hl,a
      00000A62 00000000 ED FD               1142  divu hl,a
      00000A64 00000000 ED FE               1143  subw hl,sp
      00000A66 00000000 EE 66               1144  xor a,$66
      00000A68 00000000 EF                  1145  rst $28
      00000A69 00000000 F0                  1146  ret p
      00000A6A 00000000 F1                  1147  pop af
      00000A6B 00000000 F2 44 33            1148  jp p,$3344
      00000A6E 00000000 F3                  1149  di
      00000A6F 00000000 F4 44 33            1150  call p,$3344
      00000A72 00000000 F5                  1151  push af
      00000A73 00000000 F6 66               1152  or a,$66
      00000A75 00000000 F7                  1153  rst $30
      00000A76 00000000 F8                  1154  ret m
      00000A77 00000000 F9                  1155  ldw sp,hl
      00000A78 00000000 F9                  1156  ld sp,hl
      00000A79 00000000 FA 44 33            1157  jp m,$3344
      00000A7C 00000000 FB                  1158  ei
      00000A7D 00000000 FC 44 33            1159  call m,$3344
      00000A80 00000000 FD 03 22 11         1160  incw (ix+$1122)
      00000A84 00000000 FD 04 22 11         1161  inc (pc+$1122)
      00000A88 00000000 FD 05 22 11         1162  dec (pc+$1122)
      00000A8C 00000000 FD 06 22 11 66      1163  ld (pc+$1122),$66
      00000A91 00000000 FD 09               1164  add iy,bc
      00000A93 00000000 FD 0B 22 11         1165  decw (ix+$1122)
      00000A97 00000000 FD 0C 22 11         1166  inc (ix+$1122)
      00000A9B 00000000 FD 0D 22 11         1167  dec (ix+$1122)
      00000A9F 00000000 FD 0E 22 11 66      1168  ld (ix+$1122),$66
      00000AA4 00000000 FD 13 22 11         1169  incw (iy+$1122)
      00000AA8 00000000 FD 14 22 11         1170  inc (iy+$1122)
      00000AAC 00000000 FD 15 22 11         1171  dec (iy+$1122)
      00000AB0 00000000 FD 16 22 11 66      1172  ld (iy+$1122),$66
      00000AB5 00000000 FD 19               1173  add iy,de
      00000AB7 00000000 FD 1B 22 11         1174  decw (iy+$1122)
      00000ABB 00000000 FD 1C 22 11         1175  inc (hl+$1122)
      00000ABF 00000000 FD 1D 22 11         1176  dec (hl+$1122)
      00000AC3 00000000 FD 1E 22 11 66      1177  ld (hl+$1122),$66
      00000AC8 00000000 FD 21 44 33         1178  ld iy,$3344
      00000ACC 00000000 FD 21 44 33         1179  lda iy,($3344)
      00000AD0 00000000 FD 21 44 33         1180  ldw iy,$3344
      00000AD4 00000000 FD 22 44 33         1181  ld ($3344),iy
      00000AD8 00000000 FD 22 44 33         1182  ldw ($3344),iy
      00000ADC 00000000 FD 23               1183  inc iy
      00000ADE 00000000 FD 23               1184  incw iy
      00000AE0 00000000 FD 24               1185  inc iyh
      00000AE2 00000000 FD 25               1186  dec iyh
      00000AE4 00000000 FD 26 66            1187  ld iyh,$66
      00000AE7 00000000 FD 29               1188  add iy,iy
      00000AE9 00000000 FD 2A 44 33         1189  ldw iy,($3344)
      00000AED 00000000 FD 2B               1190  dec iy
      00000AEF 00000000 FD 2B               1191  decw iy
      00000AF1 00000000 FD 2C               1192  inc iyl
      00000AF3 00000000 FD 2D               1193  dec iyl
      00000AF5 00000000 FD 2E 66            1194  ld iyl,$66
      00000AF8 00000000 FD 34 55            1195  inc (iy+$55)
      00000AFB 00000000 FD 35 55            1196  dec (iy+$55)
      00000AFE 00000000 FD 36 55 66         1197  ld (iy+$55),$66
      00000B02 00000000 FD 39               1198  add iy,sp
      00000B04 00000000 FD 44               1199  ld b,iyh
      00000B06 00000000 FD 45               1200  ld b,iyl
      00000B08 00000000 FD 46 55            1201  ld b,(iy+$55)
      00000B0B 00000000 FD 4C               1202  ld c,iyh
      00000B0D 00000000 FD 4D               1203  ld c,iyl
      00000B0F 00000000 FD 4E 55            1204  ld c,(iy+$55)


                                                                allins                                                          Page 15


      Program  Variable Code              C Line Source
      -----------------------------------------------------------------------------------------------------------------------------------
      00000B12 00000000 FD 54               1205  ld d,iyh
      00000B14 00000000 FD 55               1206  ld d,iyl
      00000B16 00000000 FD 56 55            1207  ld d,(iy+$55)
      00000B19 00000000 FD 5C               1208  ld e,iyh
      00000B1B 00000000 FD 5D               1209  ld e,iyl
      00000B1D 00000000 FD 5E 55            1210  ld e,(iy+$55)
      00000B20 00000000 FD 60               1211  ld iyh,b
      00000B22 00000000 FD 61               1212  ld iyh,c
      00000B24 00000000 FD 62               1213  ld iyh,d
      00000B26 00000000 FD 63               1214  ld iyh,e
      00000B28 00000000 FD 64               1215  ld iyh,iyh
      00000B2A 00000000 FD 65               1216  ld iyh,iyl
      00000B2C 00000000 FD 66 55            1217  ld h,(iy+$55)
      00000B2F 00000000 FD 67               1218  ld iyh,a
      00000B31 00000000 FD 68               1219  ld iyl,b
      00000B33 00000000 FD 69               1220  ld iyl,c
      00000B35 00000000 FD 6A               1221  ld iyl,d
      00000B37 00000000 FD 6B               1222  ld iyl,e
      00000B39 00000000 FD 6C               1223  ld iyl,iyh
      00000B3B 00000000 FD 6D               1224  ld iyl,iyl
      00000B3D 00000000 FD 6E 55            1225  ld l,(iy+$55)
      00000B40 00000000 FD 6F               1226  ld iyl,a
      00000B42 00000000 FD 70 55            1227  ld (iy+$55),b
      00000B45 00000000 FD 71 55            1228  ld (iy+$55),c
      00000B48 00000000 FD 72 55            1229  ld (iy+$55),d
      00000B4B 00000000 FD 73 55            1230  ld (iy+$55),e
      00000B4E 00000000 FD 74 55            1231  ld (iy+$55),h
      00000B51 00000000 FD 75 55            1232  ld (iy+$55),l
      00000B54 00000000 FD 77 55            1233  ld (iy+$55),a
      00000B57 00000000 FD 78 22 11         1234  ld a,(pc+$1122)
      00000B5B 00000000 FD 79 22 11         1235  ld a,(ix+$1122)
      00000B5F 00000000 FD 7A 22 11         1236  ld a,(iy+$1122)
      00000B63 00000000 FD 7B 22 11         1237  ld a,(hl+$1122)
      00000B67 00000000 FD 7C               1238  ld a,iyh
      00000B69 00000000 FD 7D               1239  ld a,iyl
      00000B6B 00000000 FD 7E 55            1240  ld a,(iy+$55)
      00000B6E 00000000 FD 80 22 11         1241  add a,(pc+$1122)
      00000B72 00000000 FD 81 22 11         1242  add a,(ix+$1122)
      00000B76 00000000 FD 82 22 11         1243  add a,(iy+$1122)
      00000B7A 00000000 FD 83 22 11         1244  add a,(hl+$1122)
      00000B7E 00000000 FD 84               1245  add a,iyh
      00000B80 00000000 FD 85               1246  add a,iyl
      00000B82 00000000 FD 86 55            1247  add a,(iy+$55)
      00000B85 00000000 FD 88 22 11         1248  adc a,(pc+$1122)
      00000B89 00000000 FD 89 22 11         1249  adc a,(ix+$1122)
      00000B8D 00000000 FD 8A 22 11         1250  adc a,(iy+$1122)
      00000B91 00000000 FD 8B 22 11         1251  adc a,(hl+$1122)
      00000B95 00000000 FD 8C               1252  adc a,iyh
      00000B97 00000000 FD 8D               1253  adc a,iyl
      00000B99 00000000 FD 8E 55            1254  adc a,(iy+$55)
      00000B9C 00000000 FD 90 22 11         1255  sub a,(pc+$1122)
      00000BA0 00000000 FD 91 22 11         1256  sub a,(ix+$1122)
      00000BA4 00000000 FD 92 22 11         1257  sub a,(iy+$1122)
      00000BA8 00000000 FD 93 22 11         1258  sub a,(hl+$1122)
      00000BAC 00000000 FD 94               1259  sub a,iyh
      00000BAE 00000000 FD 95               1260  sub a,iyl
      00000BB0 00000000 FD 96 55            1261  sub a,(iy+$55)
      00000BB3 00000000 FD 98 22 11         1262  sbc a,(pc+$1122)
      00000BB7 00000000 FD 99 22 11         1263  sbc a,(ix+$1122)
      00000BBB 00000000 FD 9A 22 11         1264  sbc a,(iy+$1122)
      00000BBF 00000000 FD 9B 22 11         1265  sbc a,(hl+$1122)
      00000BC3 00000000 FD 9C               1266  sbc a,iyh
      00000BC5 00000000 FD 9D               1267  sbc a,iyl
      00000BC7 00000000 FD 9E 55            1268  sbc a,(iy+$55)
      00000BCA 00000000 FD A0 22 11         1269  and a,(pc+$1122)
      00000BCE 00000000 FD A1 22 11         1270  and a,(ix+$1122)
      00000BD2 00000000 FD A2 22 11         1271  and a,(iy+$1122)
      00000BD6 00000000 FD A3 22 11         1272  and a,(hl+$1122)
      00000BDA 00000000 FD A4               1273  and a,iyh
      00000BDC 00000000 FD A5               1274  and a,iyl
      00000BDE 00000000 FD A6 55            1275  and a,(iy+$55)
      00000BE1 00000000 FD A8 22 11         1276  xor a,(pc+$1122)
      00000BE5 00000000 FD A9 22 11         1277  xor a,(ix+$1122)
      00000BE9 00000000 FD AA 22 11         1278  xor a,(iy+$1122)
      00000BED 00000000 FD AB 22 11         1279  xor a,(hl+$1122)
      00000BF1 00000000 FD AC               1280  xor a,iyh
      00000BF3 00000000 FD AD               1281  xor a,iyl
      00000BF5 00000000 FD AE 55            1282  xor a,(iy+$55)
      00000BF8 00000000 FD B0 22 11         1283  or a,(pc+$1122)
      00000BFC 00000000 FD B1 22 11         1284  or a,(ix+$1122)
      00000C00 00000000 FD B2 22 11         1285  or a,(iy+$1122)
      00000C04 00000000 FD B3 22 11         1286  or a,(hl+$1122)
      00000C08 00000000 FD B4               1287  or a,iyh
      00000C0A 00000000 FD B5               1288  or a,iyl
      00000C0C 00000000 FD B6 55            1289  or a,(iy+$55)
      00000C0F 00000000 FD B8 22 11         1290  cp a,(pc+$1122)


                                                                allins                                                          Page 16


      Program  Variable Code              C Line Source
      -----------------------------------------------------------------------------------------------------------------------------------
      00000C13 00000000 FD B9 22 11         1291  cp a,(ix+$1122)
      00000C17 00000000 FD BA 22 11         1292  cp a,(iy+$1122)
      00000C1B 00000000 FD BB 22 11         1293  cp a,(hl+$1122)
      00000C1F 00000000 FD BC               1294  cp a,iyh
      00000C21 00000000 FD BD               1295  cp a,iyl
      00000C23 00000000 FD BE 55            1296  cp a,(iy+$55)
      00000C26 00000000 FD C2 22 11         1297  jp nz,(pc+$1122)
      00000C2A 00000000 FD C3 22 11         1298  jp (pc+$1122)
      00000C2E 00000000 FD C4 22 11         1299  call nz,(pc+$1122)
      00000C32 00000000 FD CA 22 11         1300  jp z,(pc+$1122)
      00000C36 00000000 FD CB 55 06         1301  rlc (iy+$55)
      00000C3A 00000000 FD CB 55 0E         1302  rrc (iy+$55)
      00000C3E 00000000 FD CB 55 16         1303  rl (iy+$55)
      00000C42 00000000 FD CB 55 1E         1304  rr (iy+$55)
      00000C46 00000000 FD CB 55 26         1305  sla (iy+$55)
      00000C4A 00000000 FD CB 55 2E         1306  sra (iy+$55)
      00000C4E 00000000 FD CB 55 36         1307  tset (iy+$55)
      00000C52 00000000 FD CB 55 3E         1308  srl (iy+$55)
      00000C56 00000000 FD CB 55 46         1309  bit 0,(iy+$55)
      00000C5A 00000000 FD CB 55 4E         1310  bit 1,(iy+$55)
      00000C5E 00000000 FD CB 55 56         1311  bit 2,(iy+$55)
      00000C62 00000000 FD CB 55 5E         1312  bit 3,(iy+$55)
      00000C66 00000000 FD CB 55 66         1313  bit 4,(iy+$55)
      00000C6A 00000000 FD CB 55 6E         1314  bit 5,(iy+$55)
      00000C6E 00000000 FD CB 55 76         1315  bit 6,(iy+$55)
      00000C72 00000000 FD CB 55 7E         1316  bit 7,(iy+$55)
      00000C76 00000000 FD CB 55 86         1317  res 0,(iy+$55)
      00000C7A 00000000 FD CB 55 8E         1318  res 1,(iy+$55)
      00000C7E 00000000 FD CB 55 96         1319  res 2,(iy+$55)
      00000C82 00000000 FD CB 55 9E         1320  res 3,(iy+$55)
      00000C86 00000000 FD CB 55 A6         1321  res 4,(iy+$55)
      00000C8A 00000000 FD CB 55 AE         1322  res 5,(iy+$55)
      00000C8E 00000000 FD CB 55 B6         1323  res 6,(iy+$55)
      00000C92 00000000 FD CB 55 BE         1324  res 7,(iy+$55)
      00000C96 00000000 FD CB 55 C6         1325  set 0,(iy+$55)
      00000C9A 00000000 FD CB 55 CE         1326  set 1,(iy+$55)
      00000C9E 00000000 FD CB 55 D6         1327  set 2,(iy+$55)
      00000CA2 00000000 FD CB 55 DE         1328  set 3,(iy+$55)
      00000CA6 00000000 FD CB 55 E6         1329  set 4,(iy+$55)
      00000CAA 00000000 FD CB 55 EE         1330  set 5,(iy+$55)
      00000CAE 00000000 FD CB 55 F6         1331  set 6,(iy+$55)
      00000CB2 00000000 FD CB 55 FE         1332  set 7,(iy+$55)
      00000CB6 00000000 FD CC 22 11         1333  call z,(pc+$1122)
      00000CBA 00000000 FD CD 22 11         1334  call (pc+$1122)
      00000CBE 00000000 FD D2 22 11         1335  jp nc,(pc+$1122)
      00000CC2 00000000 FD D4 22 11         1336  call nc,(pc+$1122)
      00000CC6 00000000 FD DA 22 11         1337  jp c,(pc+$1122)
      00000CCA 00000000 FD DC 22 11         1338  call c,(pc+$1122)
      00000CCE 00000000 FD E1               1339  pop iy
      00000CD0 00000000 FD E2 22 11         1340  jp po,(pc+$1122)
      00000CD4 00000000 FD E3               1341  ex (sp),iy
      00000CD6 00000000 FD E4 22 11         1342  call po,(pc+$1122)
      00000CDA 00000000 FD E5               1343  push iy
      00000CDC 00000000 FD E9               1344  jp (iy)
      00000CDE 00000000 FD EA 22 11         1345  jp pe,(pc+$1122)
      00000CE2 00000000 FD EB               1346  ex iy,hl
      00000CE4 00000000 FD EC 22 11         1347  call pe,(pc+$1122)
      00000CE8 00000000 FD ED 02 22 11      1348  lda iy,(sp+$1122)
      00000CED 00000000 FD ED 04 22 11      1349  ld iy,(sp+$1122)
      00000CF2 00000000 FD ED 04 22 11      1350  ldw iy,(sp+$1122)
      00000CF7 00000000 FD ED 05 22 11      1351  ld (sp+$1122),iy
      00000CFC 00000000 FD ED 05 22 11      1352  ldw (sp+$1122),iy
      00000D01 00000000 FD ED 06 55         1353  ld bc,(iy+$55)
      00000D05 00000000 FD ED 06 55         1354  ldw bc,(iy+$55)
      00000D09 00000000 FD ED 07 22 01      1355  ex a,(pc+$122)
      00000D0E 00000000 FD ED 0A            1356  lda iy,(hl+ix)
      00000D11 00000000 FD ED 0C            1357  ld iy,(hl+ix)
      00000D14 00000000 FD ED 0C            1358  ldw iy,(hl+ix)
      00000D17 00000000 FD ED 0D            1359  ld (hl+ix),iy
      00000D1A 00000000 FD ED 0D            1360  ldw (hl+ix),iy
      00000D1D 00000000 FD ED 0E 55         1361  ld (iy+$55),bc
      00000D21 00000000 FD ED 0E 55         1362  ldw (iy+$55),bc
      00000D25 00000000 FD ED 0F 22 11      1363  ex a,(ix+$1122)
      00000D2A 00000000 FD ED 12            1364  lda iy,(hl+iy)
      00000D2D 00000000 FD ED 14            1365  ld iy,(hl+iy)
      00000D30 00000000 FD ED 14            1366  ldw iy,(hl+iy)
      00000D33 00000000 FD ED 15            1367  ld (hl+iy),iy
      00000D36 00000000 FD ED 15            1368  ldw (hl+iy),iy
      00000D39 00000000 FD ED 16 55         1369  ld de,(iy+$55)
      00000D3D 00000000 FD ED 16 55         1370  ldw de,(iy+$55)
      00000D41 00000000 FD ED 17 22 11      1371  ex a,(iy+$1122)
      00000D46 00000000 FD ED 1A            1372  lda iy,(ix+iy)
      00000D49 00000000 FD ED 1C            1373  ld iy,(ix+iy)
      00000D4C 00000000 FD ED 1C            1374  ldw iy,(ix+iy)
      00000D4F 00000000 FD ED 1D            1375  ld (ix+iy),iy
      00000D52 00000000 FD ED 1D            1376  ldw (ix+iy),iy


                                                                allins                                                          Page 17


      Program  Variable Code              C Line Source
      -----------------------------------------------------------------------------------------------------------------------------------
      00000D55 00000000 FD ED 1E 55         1377  ld (iy+$55),de
      00000D59 00000000 FD ED 1E 55         1378  ldw (iy+$55),de
      00000D5D 00000000 FD ED 1F 22 11      1379  ex a,(hl+$1122)
      00000D62 00000000 FD ED 22 22 11      1380  lda iy,(pc+$1122)
      00000D67 00000000 FD ED 24 22 11      1381  ld iy,(pc+$1122)
      00000D6C 00000000 FD ED 24 22 11      1382  ldw iy,(pc+$1122)
      00000D71 00000000 FD ED 25 22 11      1383  ld (pc+$1122),iy
      00000D76 00000000 FD ED 25 22 11      1384  ldw (pc+$1122),iy
      00000D7B 00000000 FD ED 26 55         1385  ld hl,(iy+$55)
      00000D7F 00000000 FD ED 26 55         1386  ldw hl,(iy+$55)
      00000D83 00000000 FD ED 27            1387  ex a,iyh
      00000D86 00000000 FD ED 2A 22 11      1388  lda iy,(ix+$1122)
      00000D8B 00000000 FD ED 2C 22 11      1389  ld iy,(ix+$1122)
      00000D90 00000000 FD ED 2C 22 11      1390  ldw iy,(ix+$1122)
      00000D95 00000000 FD ED 2D 22 11      1391  ld (ix+$1122),iy
      00000D9A 00000000 FD ED 2D 22 11      1392  ldw (ix+$1122),iy
      00000D9F 00000000 FD ED 2E 55         1393  ld (iy+$55),hl
      00000DA3 00000000 FD ED 2E 55         1394  ldw (iy+$55),hl
      00000DA7 00000000 FD ED 2F            1395  ex a,iyl
      00000DAA 00000000 FD ED 32 22 11      1396  lda iy,(iy+$1122)
      00000DAF 00000000 FD ED 34 22 11      1397  ld iy,(iy+$1122)
      00000DB4 00000000 FD ED 34 22 11      1398  ldw iy,(iy+$1122)
      00000DB9 00000000 FD ED 35 22 11      1399  ld (iy+$1122),iy
      00000DBE 00000000 FD ED 35 22 11      1400  ldw (iy+$1122),iy
      00000DC3 00000000 FD ED 36 55         1401  ld sp,(iy+$55)
      00000DC7 00000000 FD ED 36 55         1402  ldw sp,(iy+$55)
      00000DCB 00000000 FD ED 37 55         1403  ex a,(iy+$55)
      00000DCF 00000000 FD ED 3A 22 11      1404  lda iy,(hl+$1122)
      00000DD4 00000000 FD ED 3C 22 11      1405  ld iy,(hl+$1122)
      00000DD9 00000000 FD ED 3C 22 11      1406  ldw iy,(hl+$1122)
      00000DDE 00000000 FD ED 3D 22 11      1407  ld (hl+$1122),iy
      00000DE3 00000000 FD ED 3D 22 11      1408  ldw (hl+$1122),iy
      00000DE8 00000000 FD ED 3E 55         1409  ld (iy+$55),sp
      00000DEC 00000000 FD ED 3E 55         1410  ldw (iy+$55),sp
      00000DF0 00000000 FD ED 40 22 11      1411  in (pc+$1122),(c)
      00000DF5 00000000 FD ED 41 22 11      1412  out (c),(pc+$1122)
      00000DFA 00000000 FD ED 42            1413  sbc iy,bc
      00000DFD 00000000 FD ED 48 22 11      1414  in (ix+$1122),(c)
      00000E02 00000000 FD ED 49 62 04      1415  out (c),(ix+1122)
      00000E07 00000000 FD ED 4A            1416  adc iy,bc
      00000E0A 00000000 FD ED 50 22 11      1417  in (iy+$1122),(c)
      00000E0F 00000000 FD ED 51 22 11      1418  out (c),(iy+$1122)
      00000E14 00000000 FD ED 52            1419  sbc iy,de
      00000E17 00000000 FD ED 58 22 11      1420  in (hl+$1122),(c)
      00000E1C 00000000 FD ED 59 22 11      1421  out (c),(hl+$1122)
      00000E21 00000000 FD ED 5A            1422  adc iy,de
      00000E24 00000000 FD ED 60            1423  in iyh,(c)
      00000E27 00000000 FD ED 61            1424  out (c),iyh
      00000E2A 00000000 FD ED 62            1425  sbc iy,iy
      00000E2D 00000000 FD ED 66            1426  ldctl iy,(c)
      00000E30 00000000 FD ED 68            1427  in iyl,(c)
      00000E33 00000000 FD ED 69            1428  out (c),iyl
      00000E36 00000000 FD ED 6A            1429  adc iy,iy
      00000E39 00000000 FD ED 6D            1430  add iy,a
      00000E3C 00000000 FD ED 6E            1431  ldctl (c),iy
      00000E3F 00000000 FD ED 72            1432  sbc iy,sp
      00000E42 00000000 FD ED 7A            1433  adc iy,sp
      00000E45 00000000 FD ED 86 55         1434  ldud a,(iy+$55)
      00000E49 00000000 FD ED 87            1435  ldctl iy,usp
      00000E4C 00000000 FD ED 8E 55         1436  ldud (iy+$55),a
      00000E50 00000000 FD ED 8F            1437  ldctl usp,iy
      00000E53 00000000 FD ED 96 55         1438  ldup a,(iy+$55)
      00000E57 00000000 FD ED 9E 55         1439  ldup (iy+$55),a
      00000E5B 00000000 FD ED C0 22 11      1440  mult a,(pc+$1122)
      00000E60 00000000 FD ED C1 22 11      1441  multu a,(pc+$1122)
      00000E65 00000000 FD ED C2 22 11      1442  multw hl,(ix+$1122)
      00000E6A 00000000 FD ED C3 22 11      1443  multuw hl,(ix+$1122)
      00000E6F 00000000 FD ED C4 22 11      1444  div hl,(pc+$1122)
      00000E74 00000000 FD ED C5 22 11      1445  divu hl,(pc+$1122)
      00000E79 00000000 FD ED C6 22 11      1446  addw hl,(ix+$1122)
      00000E7E 00000000 FD ED C7 22 11      1447  cpw hl,(ix+$1122)
      00000E83 00000000 FD ED C8 22 11      1448  mult a,(ix+$1122)
      00000E88 00000000 FD ED C9 22 11      1449  multu a,(ix+$1122)
      00000E8D 00000000 FD ED CA 22 11      1450  divw dehl,(ix+$1122)
      00000E92 00000000 FD ED CB 22 11      1451  divuw dehl,(ix+$1122)
      00000E97 00000000 FD ED CC 22 11      1452  div hl,(ix+$1122)
      00000E9C 00000000 FD ED CD 22 11      1453  divu hl,(ix+$1122)
      00000EA1 00000000 FD ED CE 22 11      1454  subw hl,(ix+$1122)
      00000EA6 00000000 FD ED D0 22 11      1455  mult a,(iy+$1122)
      00000EAB 00000000 FD ED D1 22 11      1456  multu a,(iy+$1122)
      00000EB0 00000000 FD ED D2 22 11      1457  multw hl,(iy+$1122)
      00000EB5 00000000 FD ED D3 22 11      1458  multuw hl,(iy+$1122)
      00000EBA 00000000 FD ED D4 22 11      1459  div hl,(iy+$1122)
      00000EBF 00000000 FD ED D5 22 11      1460  divu hl,(iy+$1122)
      00000EC4 00000000 FD ED D6 22 11      1461  addw hl,(iy+$1122)
      00000EC9 00000000 FD ED D7 22 11      1462  cpw hl,(iy+$1122)


                                                                allins                                                          Page 18


      Program  Variable Code              C Line Source
      -----------------------------------------------------------------------------------------------------------------------------------
      00000ECE 00000000 FD ED D8 22 11      1463  mult a,(hl+$1122)
      00000ED3 00000000 FD ED D9 22 11      1464  multu a,(hl+$1122)
      00000ED8 00000000 FD ED DA 22 11      1465  divw dehl,(iy+$1122)
      00000EDD 00000000 FD ED DB 22 11      1466  divuw dehl,(iy+$1122)
      00000EE2 00000000 FD ED DC 22 11      1467  div hl,(hl+$1122)
      00000EE7 00000000 FD ED DD 22 11      1468  divu hl,(hl+$1122)
      00000EEC 00000000 FD ED DE 22 11      1469  subw hl,(iy+$1122)
      00000EF1 00000000 FD ED E0            1470  mult a,iyh
      00000EF4 00000000 FD ED E1            1471  multu a,iyh
      00000EF7 00000000 FD ED E2            1472  multw hl,iy
      00000EFA 00000000 FD ED E3            1473  multuw hl,iy
      00000EFD 00000000 FD ED E4            1474  div hl,iyh
      00000F00 00000000 FD ED E5            1475  divu hl,iyh
      00000F03 00000000 FD ED E6            1476  addw hl,iy
      00000F06 00000000 FD ED E7            1477  cpw hl,iy
      00000F09 00000000 FD ED E8            1478  mult a,iyl
      00000F0C 00000000 FD ED E9            1479  multu a,iyl
      00000F0F 00000000 FD ED EA            1480  divw dehl,iy
      00000F12 00000000 FD ED EB            1481  divuw dehl,iy
      00000F15 00000000 FD ED EC            1482  div hl,iyl
      00000F18 00000000 FD ED ED            1483  divu hl,iyl
      00000F1B 00000000 FD ED EE            1484  subw hl,iy
      00000F1E 00000000 FD ED F0 55         1485  mult a,(iy+$55)
      00000F22 00000000 FD ED F1 55         1486  multu a,(iy+$55)
      00000F26 00000000 FD ED F2 44 33      1487  multw hl,$3344
      00000F2B 00000000 FD ED F3 44 33      1488  multuw hl,$3344
      00000F30 00000000 FD ED F4 55         1489  div hl,(iy+$55)
      00000F34 00000000 FD ED F5 55         1490  divu hl,(iy+$55)
      00000F38 00000000 FD ED F6 44 33      1491  addw hl,$3344
      00000F3D 00000000 FD ED F7 44 33      1492  cpw hl,$3344
      00000F42 00000000 FD ED F8 66         1493  mult a,$66
      00000F46 00000000 FD ED F9 66         1494  multu a,$66
      00000F4A 00000000 FD ED FA 44 33      1495  divw dehl,$3344
      00000F4F 00000000 FD ED FB 44 33      1496  divuw dehl,$3344
      00000F54 00000000 FD ED FC 66         1497  div hl,$66
      00000F58 00000000 FD ED FD 66         1498  divu hl,$66
      00000F5C 00000000 FD ED FE 44 33      1499  subw hl,$3344
      00000F61 00000000 FD F2 22 11         1500  jp p,(pc+$1122)
      00000F65 00000000 FD F4 22 11         1501  call p,(pc+$1122)
      00000F69 00000000 FD F5 44 33         1502  push $3344
      00000F6D 00000000 FD F9               1503  ld sp,iy
      00000F6F 00000000 FD F9               1504  ldw sp,iy
      00000F71 00000000 FD FA 22 11         1505  jp m,(pc+$1122)
      00000F75 00000000 FD FC 22 11         1506  call m,(pc+$1122)
      00000F79 00000000 FE 66               1507  cp a,$66
      00000F7B 00000000 FF                  1508  rst $38
      00000F7C 00000000                   + 1509 
