

                                                                allins                                                          Page 1


      Program  Variable Code              C Line Source
      -----------------------------------------------------------------------------------------------------------------------------------
      00000000 00000000                        1 !!!!!!!!!!!!!!!!!!!!!!!!!!!!!!!!!!!!!!!!!!!!!!!!!!!!!!!!!!!!!!!!!!!!!!!!!!!!!!!
      00000000 00000000                        2 !                                                                             !
      00000000 00000000                        3 !                          80586 ASSEMBLER TEST FILE                          !
      00000000 00000000                        4 !                                                                             !
      00000000 00000000                        5 ! Contains all of the 80586 operations possible, in alphabetical order (for   !
      00000000 00000000                        6 ! the most part). Because of the instruction set complexity, the entire       !
      00000000 00000000                        7 ! instruction set is not included verbatium, but separated into instructions  !
      00000000 00000000                        8 ! and modes. Because the same code is used in all mode instruction fields,    !
      00000000 00000000                        9 ! this is considered an adequate test. However, it makes it inadvisable to    !
      00000000 00000000                       10 ! sort the list for binary order.                                             !
      00000000 00000000                       11 ! Because the 80586 instruction set is modal, the test is repeated twice,     !
      00000000 00000000                       12 ! once for each mode type (16 or 32 bit). This allows testing of the          !
      00000000 00000000                       13 ! prefixes.                                                                   !
      00000000 00000000                       14 !                                                                             !
      00000000 00000000                       15 !!!!!!!!!!!!!!!!!!!!!!!!!!!!!!!!!!!!!!!!!!!!!!!!!!!!!!!!!!!!!!!!!!!!!!!!!!!!!!!
      00000000 00000000                       16 
      00000000 00000000                       17 locb:   equ     0
      00000000 00000000                       18 locw:   equ     1
      00000000 00000000                       19 locd:   equ     3
      00000000 00000000                       20 locq:   equ     7
      00000000 00000000                       21 loct:   equ     15
      00000000 00000000                       22 
      00000000 00000000                       23 start:
      00000000 00000000                       24 
      00000000 00000000                       25 !!!!!!!!!!!!!!!!!!!!!!!!!!!!!!!!!!!!!!!!!!!!!!!!!!!!!!!!!!!!!!!!!!!!!!!!!!!!!!!
      00000000 00000000                       26 !                                                                             !
      00000000 00000000                       27 ! Perform the suite in large mode                                             !
      00000000 00000000                       28 !                                                                             !
      00000000 00000000                       29 !!!!!!!!!!!!!!!!!!!!!!!!!!!!!!!!!!!!!!!!!!!!!!!!!!!!!!!!!!!!!!!!!!!!!!!!!!!!!!!
      00000000 00000000                       30 
      00000000 00000000                       31         large
      00000000 00000000                       32 !
      00000000 00000000                       33 ! First, all the instructions in alphabetical order
      00000000 00000000                       34 !
      00000000 00000000 37                    35         aaa
      00000001 00000000 D5 0A                 36         aad
      00000003 00000000 D4 0A                 37         aam
      00000005 00000000 3F                    38         aas
      00000006 00000000 67 10 06 00 00        39         adc     [locb],al        
      0000000B 00000000 66 67 11 06 01 00     40         adc     [locw],ax
      00000011 00000000 67 11 06 03 00        41         adc     [locd],eax
      00000016 00000000 67 12 06 00 00        42         adc     al,[locb]
      0000001B 00000000 66 67 13 06 01 00     43         adc     ax,[locw]
      00000021 00000000 67 13 06 03 00        44         adc     eax,[locd]
      00000026 00000000 14 11                 45         adc     al,$11
      00000028 00000000 66 15 22 11           46         adc     ax,$1122
      0000002C 00000000 15 44 33 22 11        47         adc     eax,$11223344
      00000031 00000000 67 80 16 00 00 11     48         adcb    [locb],$11
      00000037 00000000 66 67 81 16 01 00 +   49         adcw    [locw],$1122
      0000003F 00000000 67 81 16 03 00 44 +   50         adcd    [locd],$11223344
      00000048 00000000 66 67 83 16 01 00 +   51         adcw    [locw],$11
      0000004F 00000000 67 83 16 03 00 11     52         adcd    [locd],$11
      00000055 00000000 04 11                 53         add     al,$11
      00000057 00000000 66 05 22 11           54         add     ax,$1122
      0000005B 00000000 05 44 33 22 11        55         add     eax,$11223344
      00000060 00000000 67 80 06 00 00 11     56         addb    [locb],$11
      00000066 00000000 66 67 81 06 01 00 +   57         addw    [locw],$1122
      0000006E 00000000 67 81 06 03 00 44 +   58         addd    [locd],$11223344
      00000077 00000000 66 67 83 06 01 00 +   59         addw    [locw],$11
      0000007E 00000000 67 83 06 03 00 11     60         addd    [locd],$11
      00000084 00000000 67 00 06 00 00        61         add     [locb],al
      00000089 00000000 66 67 01 06 01 00     62         add     [locw],ax
      0000008F 00000000 67 01 06 03 00        63         add     [locd],eax
      00000094 00000000 67 02 1E 00 00        64         add     bl,[locb]
      00000099 00000000 66 67 03 1E 01 00     65         add     bx,[locw]
      0000009F 00000000 67 03 1E 03 00        66         add     ebx,[locd]
      000000A4 00000000 67 20 06 00 00        67         and     [locb],al        
      000000A9 00000000 66 67 21 06 01 00     68         and     [locw],ax
      000000AF 00000000 67 21 06 03 00        69         and     [locd],eax
      000000B4 00000000 67 22 06 00 00        70         and     al,[locb]
      000000B9 00000000 66 67 23 06 01 00     71         and     ax,[locw]
      000000BF 00000000 67 23 06 03 00        72         and     eax,[locd]
      000000C4 00000000 24 11                 73         and     al,$11
      000000C6 00000000 66 25 22 11           74         and     ax,$1122
      000000CA 00000000 25 44 33 22 11        75         and     eax,$11223344
      000000CF 00000000 67 80 26 00 00 11     76         andb    [locb],$11
      000000D5 00000000 66 67 81 26 01 00 +   77         andw    [locw],$1122
      000000DD 00000000 67 81 26 03 00 44 +   78         andd    [locd],$11223344
      000000E6 00000000 66 67 83 26 01 00 +   79         andw    [locw],$11
      000000ED 00000000 67 83 26 03 00 11     80         andd    [locd],$11
      000000F3 00000000 67 63 06 01 00        81         arpl    [locw],ax
      000000F8 00000000 66 67 62 06 03 00     82         bound   ax,[locd]
      000000FE 00000000 67 62 06 07 00        83         bound   eax,[locq]
      00000103 00000000 66 67 0F BC 06 01 +   84         bsf     ax,[locw]
      0000010A 00000000 67 0F BC 06 03 00     85         bsf     eax,[locd]
      00000110 00000000 66 67 0F BD 06 01 +   86         bsr     ax,[locw]


                                                                allins                                                          Page 2


      Program  Variable Code              C Line Source
      -----------------------------------------------------------------------------------------------------------------------------------
      00000117 00000000 67 0F BD 06 03 00     87         bsr     eax,[locd]
      0000011D 00000000 0F C8                 88         bswap   eax
      0000011F 00000000 66 67 0F A3 06 01 +   89         bt      [locw],ax
      00000126 00000000 67 0F A3 06 03 00     90         bt      [locd],eax
      0000012C 00000000 66 67 0F BA 26 01 +   91         btw     [locw],$11
      00000134 00000000 67 0F BA 26 03 00 +   92         btd     [locd],$11
      0000013B 00000000 66 67 0F BB 06 01 +   93         btc     [locw],ax
      00000142 00000000 67 0F BB 06 03 00     94         btc     [locd],eax
      00000148 00000000 66 67 0F BA 3E 01 +   95         btcw    [locw],$11
      00000150 00000000 67 0F BA 3E 03 00 +   96         btcd    [locd],$11
      00000157 00000000 66 67 0F B3 06 01 +   97         btr     [locw],ax
      0000015E 00000000 67 0F B3 06 03 00     98         btr     [locd],eax
      00000164 00000000 66 67 0F BA 36 01 +   99         btrw    [locw],$11
      0000016C 00000000 67 0F BA 36 03 00 +  100         btrd    [locd],$11
      00000173 00000000 66 67 0F AB 06 01 +  101         bts     [locw],ax
      0000017A 00000000 67 0F AB 06 03 00    102         bts     [locd],eax
      00000180 00000000 66 67 0F BA 2E 01 +  103         btsw    [locw],$11
      00000188 00000000 67 0F BA 2E 03 00 +  104         btsd    [locd],$11
      0000018F 00000000 E8 6C FE FF FF       105         call    start
      00000194 00000000 67 66 FF 16 01 00    106         callm   [locw]
      0000019A 00000000 67 FF 16 03 00       107         calll   [locd]
      0000019F 00000000 66 98                108         cbw
      000001A1 00000000 99                   109         cdq
      000001A2 00000000 F8                   110         clc
      000001A3 00000000 FC                   111         cld
      000001A4 00000000 FA                   112         cli
      000001A5 00000000 0F 06                113         clts
      000001A7 00000000 F5                   114         cmc
      000001A8 00000000 3C 11                115         cmp     al,$11
      000001AA 00000000 66 3D 22 11          116         cmp     ax,$1122
      000001AE 00000000 3D 44 33 22 11       117         cmp     eax,$11223344
      000001B3 00000000 67 80 3E 00 00 11    118         cmpb    [locb],$11
      000001B9 00000000 66 67 81 3E 01 00 +  119         cmpw    [locw],$1122
      000001C1 00000000 67 81 3E 03 00 44 +  120         cmpd    [locd],$11223344
      000001CA 00000000 66 67 83 3E 01 00 +  121         cmpw    [locw],$11
      000001D1 00000000 67 83 3E 03 00 11    122         cmpd    [locd],$11
      000001D7 00000000 67 38 06 00 00       123         cmp     [locb],al
      000001DC 00000000 66 67 39 06 01 00    124         cmp     [locw],ax
      000001E2 00000000 67 39 06 03 00       125         cmp     [locd],eax
      000001E7 00000000 67 3A 1E 00 00       126         cmp     bl,[locb]
      000001EC 00000000 66 67 3B 1E 01 00    127         cmp     bx,[locw]
      000001F2 00000000 67 3B 1E 03 00       128         cmp     ebx,[locd]
      000001F7 00000000 A6                   129         cmpsb
      000001F8 00000000 66 A7                130         cmpsw
      000001FA 00000000 A7                   131         cmpsd
      000001FB 00000000 67 0F B0 06 00 00    132         cmpxchg [locb],al
      00000201 00000000 66 67 0F B1 06 01 +  133         cmpxchg [locw],ax
      00000208 00000000 66 99                134         cwd
      0000020A 00000000 98                   135         cwde
      0000020B 00000000 27                   136         daa
      0000020C 00000000 2F                   137         das
      0000020D 00000000 67 FE 0E 00 00       138         decb    [locb]
      00000212 00000000 66 67 FF 0E 01 00    139         decw    [locw]
      00000218 00000000 67 FF 0E 03 00       140         decd    [locd]
      0000021D 00000000 66 48                141         dec     ax
      0000021F 00000000 48                   142         dec     eax        
      00000220 00000000 67 F6 36 00 00       143         divb    [locb]
      00000225 00000000 66 67 F7 36 01 00    144         divw    [locw]
      0000022B 00000000 67 F7 36 03 00       145         divd    [locd]
      00000230 00000000 C8 22 11 33          146         enter   $1122,$33
      00000234 00000000 F4                   147         hlt
      00000235 00000000 67 F6 3E 00 00       148         idivb   [locb]
      0000023A 00000000 66 67 F7 3E 01 00    149         idivw   [locw]
      00000240 00000000 67 F7 3E 03 00       150         idivd   [locd]
      00000245 00000000 67 F6 2E 00 00       151         imulb   [locb]
      0000024A 00000000 66 67 F7 2E 01 00    152         imulw   [locw]
      00000250 00000000 67 F7 2E 03 00       153         imuld   [locd]
      00000255 00000000 66 67 0F AF 06 01 +  154         imul    ax,[locw]
      0000025C 00000000 67 0F AF 06 03 00    155         imul    eax,[locd]
      00000262 00000000 66 67 6B 06 01 00 +  156         imul    ax,[locw],$11
      00000269 00000000 67 6B 06 03 00 11    157         imul    eax,[locd],$11
      0000026F 00000000 66 6B C0 11          158         imul    ax,$11
      00000273 00000000 6B C0 11             159         imul    eax,$11
      00000276 00000000 66 67 69 06 01 00 +  160         imul    ax,[locw],$1122
      0000027E 00000000 67 69 06 03 00 44 +  161         imul    eax,[locd],$11223344
      00000287 00000000 66 69 C0 22 11       162         imul    ax,$1122
      0000028C 00000000 69 C0 44 33 22 11    163         imul    eax,$11223344
      00000292 00000000 E4 11                164         in      al,$11
      00000294 00000000 66 E5 11             165         in      ax,$11
      00000297 00000000 E5 11                166         in      eax,$11
      00000299 00000000 EC                   167         in      al,dx
      0000029A 00000000 66 ED                168         in      ax,dx
      0000029C 00000000 ED                   169         in      eax,dx
      0000029D 00000000 67 FE 06 00 00       170         incb    [locb]
      000002A2 00000000 66 67 FF 06 01 00    171         incw    [locw]
      000002A8 00000000 67 FF 06 03 00       172         incd    [locd]


                                                                allins                                                          Page 3


      Program  Variable Code              C Line Source
      -----------------------------------------------------------------------------------------------------------------------------------
      000002AD 00000000 66 40                173         inc     ax
      000002AF 00000000 40                   174         inc     eax
      000002B0 00000000 6C                   175         insb
      000002B1 00000000 66 6D                176         insw
      000002B3 00000000 6D                   177         insd
      000002B4 00000000 CC                   178         int     3
      000002B5 00000000 CD 11                179         int     $11
      000002B7 00000000 CE                   180         into
      000002B8 00000000 0F 08                181         invd
      000002BA 00000000 67 0F 01 3E 01 00    182         invlpg  [locw]
      000002C0 00000000 66 CF                183         iret
      000002C2 00000000 CF                   184         iretd
      000002C3 00000000                      185 jmprel1:
      000002C3 00000000 77 FE                186         ja      jmprel1
      000002C5 00000000 73 FC                187         jae     jmprel1
      000002C7 00000000 72 FA                188         jb      jmprel1
      000002C9 00000000 76 F8                189         jbe     jmprel1
      000002CB 00000000 72 F6                190         jc      jmprel1
      000002CD 00000000 66 E3 F3             191         jcxz    jmprel1
      000002D0 00000000 E3 F1                192         jecxz   jmprel1
      000002D2 00000000 74 EF                193         je      jmprel1
      000002D4 00000000 74 ED                194         jz      jmprel1
      000002D6 00000000 7F EB                195         jg      jmprel1
      000002D8 00000000 7D E9                196         jge     jmprel1
      000002DA 00000000 7C E7                197         jl      jmprel1
      000002DC 00000000 7E E5                198         jle     jmprel1
      000002DE 00000000 76 E3                199         jna     jmprel1
      000002E0 00000000 72 E1                200         jnae    jmprel1
      000002E2 00000000 73 DF                201         jnb     jmprel1
      000002E4 00000000 77 DD                202         jnbe    jmprel1
      000002E6 00000000 73 DB                203         jnc     jmprel1
      000002E8 00000000 75 D9                204         jne     jmprel1
      000002EA 00000000 7E D7                205         jng     jmprel1
      000002EC 00000000 7C D5                206         jnge    jmprel1
      000002EE 00000000 7D D3                207         jnl     jmprel1
      000002F0 00000000 7F D1                208         jnle    jmprel1
      000002F2 00000000 71 CF                209         jno     jmprel1
      000002F4 00000000 7B CD                210         jnp     jmprel1
      000002F6 00000000 79 CB                211         jns     jmprel1
      000002F8 00000000 75 C9                212         jnz     jmprel1
      000002FA 00000000 70 C7                213         jo      jmprel1
      000002FC 00000000 7A C5                214         jp      jmprel1
      000002FE 00000000 7A C3                215         jpe     jmprel1
      00000300 00000000 7B C1                216         jpo     jmprel1
      00000302 00000000 78 BF                217         js      jmprel1
      00000304 00000000 74 BD                218         jz      jmprel1
      00000306 00000000 EB BB                219         jmp     jmprel1
      00000308 00000000 E9 F3 FC FF FF       220         jmp     start
      0000030D 00000000 67 66 FF 26 01 00    221         jmpm    [locw]
      00000313 00000000 67 FF 26 03 00       222         jmpl    [locd]
      00000318 00000000 9F                   223         lahf
      00000319 00000000 66 67 0F 02 06 01 +  224         lar     ax,[locw]
      00000320 00000000 67 0F 02 06 03 00    225         lar     eax,[locd]
      00000326 00000000 66 67 8D 05          226         lea     ax,[di]
      0000032A 00000000 8D 07                227         lea     eax,[edi]
      0000032C 00000000 C9                   228         leave
      0000032D 00000000 67 0F 01 16 07 00    229         lgdtd   [locq]
      00000333 00000000 67 0F 01 1E 07 00    230         lidtd   [locq]
      00000339 00000000 67 0F 00 16 01 00    231         lldt    [locw]
      0000033F 00000000 67 0F 01 36 01 00    232         lmsw    [locw]
      00000345 00000000 F0                   233         lock
      00000346 00000000 AC                   234         lodsb
      00000347 00000000 66 AD                235         lodsw
      00000349 00000000 AD                   236         lodsd
      0000034A 00000000                      237 looprel1:
      0000034A 00000000 E2 FE                238         loop    looprel1
      0000034C 00000000 E1 FC                239         loope   looprel1
      0000034E 00000000 E1 FA                240         loopz   looprel1
      00000350 00000000 E0 F8                241         loopne  looprel1
      00000352 00000000 E0 F6                242         loopnz  looprel1
      00000354 00000000 66 67 0F 03 06 01 +  243         lsl     ax,[locw]
      0000035B 00000000 67 0F 03 06 03 00    244         lsl     eax,[locd]
      00000361 00000000 67 0F 00 1E 01 00    245         ltr     [locw]
      00000367 00000000 67 88 00             246         mov     [bx+si],al
      0000036A 00000000 67 66 89 00          247         mov     [bx+si],ax
      0000036E 00000000 89 04 33             248         mov     [ebx+esi],eax
      00000371 00000000 67 8A 00             249         mov     al,[bx+si]
      00000374 00000000 67 66 8B 00          250         mov     ax,[bx+si]
      00000378 00000000 8B 04 33             251         mov     eax,[ebx+esi]
      0000037B 00000000 67 66 8C 1E 01 00    252         mov     [locw],ds
      00000381 00000000 67 8E 1E 01 00       253         mov     ds,[locw]
      00000386 00000000 67 A0 00 00 00 00    254         mov     al,[locb]
      0000038C 00000000 67 66 A1 01 00 00 +  255         mov     ax,[locw]
      00000393 00000000 67 A1 03 00 00 00    256         mov     eax,[locd]
      00000399 00000000 67 A2 00 00 00 00    257         mov     [locb],al
      0000039F 00000000 67 66 A3 01 00 00 +  258         mov     [locw],ax


                                                                allins                                                          Page 4


      Program  Variable Code              C Line Source
      -----------------------------------------------------------------------------------------------------------------------------------
      000003A6 00000000 67 A3 03 00 00 00    259         mov     [locd],eax
      000003AC 00000000 B0 11                260         mov     al,$11
      000003AE 00000000 66 B8 22 11          261         mov     ax,$1122
      000003B2 00000000 B8 44 33 22 11       262         mov     eax,$11223344
      000003B7 00000000 67 C6 06 00 00 11    263         movb    [locb],$11
      000003BD 00000000 67 66 C7 06 01 00 +  264         movw    [locw],$1122
      000003C5 00000000 67 C7 06 03 00 44 +  265         movd    [locd],$11223344
      000003CE 00000000 0F 22 C0             266         mov     cr0,eax
      000003D1 00000000 0F 20 C0             267         mov     eax,cr0
      000003D4 00000000 0F 23 C0             268         mov     dr0,eax
      000003D7 00000000 0F 21 C0             269         mov     eax,dr0
      000003DA 00000000 0F 26 F0             270         mov     tr6,eax
      000003DD 00000000 0F 24 F0             271         mov     eax,tr6
      000003E0 00000000 A4                   272         movsb
      000003E1 00000000 66 A5                273         movsw
      000003E3 00000000 A5                   274         movsd
      000003E4 00000000 66 67 0F BE 06 00 +  275         movsxb  ax,[locb]
      000003EB 00000000 67 0F BE 06 00 00    276         movsxb  eax,[locb]
      000003F1 00000000 67 0F BF 06 01 00    277         movsxw  eax,[locw]
      000003F7 00000000 66 67 0F B6 06 00 +  278         movzxb  ax,[locb]
      000003FE 00000000 67 0F B6 06 00 00    279         movzxb  eax,[locb]
      00000404 00000000 67 0F B7 06 01 00    280         movzxw  eax,[locw]
      0000040A 00000000 67 F6 26 00 00       281         mulb    [locb]
      0000040F 00000000 66 67 F7 26 01 00    282         mulw    [locw]
      00000415 00000000 67 F7 26 03 00       283         muld    [locd]
      0000041A 00000000 67 F6 1E 00 00       284         negb    [locb]
      0000041F 00000000 66 67 F7 1E 01 00    285         negw    [locw]
      00000425 00000000 67 F7 1E 03 00       286         negd    [locd]
      0000042A 00000000 90                   287         nop
      0000042B 00000000 67 F6 16 00 00       288         notb    [locb]
      00000430 00000000 66 67 F7 16 01 00    289         notw    [locw]
      00000436 00000000 67 F7 16 03 00       290         notd    [locd]
      0000043B 00000000 0C 11                291         or      al,$11
      0000043D 00000000 66 0D 22 11          292         or      ax,$1122
      00000441 00000000 0D 44 33 22 11       293         or      eax,$11223344
      00000446 00000000 67 80 0E 00 00 11    294         orb     [locb],$11
      0000044C 00000000 66 67 81 0E 01 00 +  295         orw     [locw],$1122
      00000454 00000000 67 81 0E 03 00 44 +  296         ord     [locd],$11223344
      0000045D 00000000 66 67 83 0E 01 00 +  297         orw     [locw],$11
      00000464 00000000 67 83 0E 03 00 11    298         ord     [locd],$11
      0000046A 00000000 67 08 06 00 00       299         or      [locb],al
      0000046F 00000000 66 67 09 06 01 00    300         or      [locw],ax
      00000475 00000000 67 09 06 03 00       301         or      [locd],eax
      0000047A 00000000 67 0A 26 00 00       302         or      ah,[locb]
      0000047F 00000000 66 67 0B 1E 01 00    303         or      bx,[locw]
      00000485 00000000 67 0B 1E 03 00       304         or      ebx,[locd]
      0000048A 00000000 E6 11                305         out     $11,al
      0000048C 00000000 66 E7 11             306         out     $11,ax
      0000048F 00000000 E7 11                307         out     $11,eax
      00000491 00000000 EE                   308         out     dx,al
      00000492 00000000 66 EF                309         out     dx,ax
      00000494 00000000 EF                   310         out     dx,eax
      00000495 00000000 6E                   311         outsb
      00000496 00000000 66 6F                312         outsw
      00000498 00000000 6F                   313         outsd
      00000499 00000000 67 66 8F 06 01 00    314         popw    [locw]
      0000049F 00000000 67 8F 06 03 00       315         popd    [locd]
      000004A4 00000000 66 58                316         pop     ax
      000004A6 00000000 58                   317         pop     eax
      000004A7 00000000 1F                   318         pop     ds
      000004A8 00000000 07                   319         pop     es
      000004A9 00000000 17                   320         pop     ss
      000004AA 00000000 0F A1                321         pop     fs
      000004AC 00000000 0F A9                322         pop     gs
      000004AE 00000000 66 61                323         popa
      000004B0 00000000 61                   324         popad
      000004B1 00000000 66 9D                325         popf
      000004B3 00000000 9D                   326         popfd
      000004B4 00000000 67 66 FF 36 01 00    327         pushw   [locw]
      000004BA 00000000 67 FF 36 03 00       328         pushd   [locd]
      000004BF 00000000 66 50                329         push    ax
      000004C1 00000000 50                   330         push    eax
      000004C2 00000000 6A 11                331         pushd   $11
      000004C4 00000000 66 68 22 11          332         pushw   $1122
      000004C8 00000000 68 44 33 22 11       333         pushd   $11223344
      000004CD 00000000 0E                   334         push    cs
      000004CE 00000000 16                   335         push    ss
      000004CF 00000000 1E                   336         push    ds
      000004D0 00000000 06                   337         push    es
      000004D1 00000000 0F A0                338         push    fs
      000004D3 00000000 0F A8                339         push    gs
      000004D5 00000000 66 60                340         pusha
      000004D7 00000000 60                   341         pushad
      000004D8 00000000 66 9C                342         pushf
      000004DA 00000000 9C                   343         pushfd
      000004DB 00000000 67 D0 16 00 00       344         rclb    [locb],1


                                                                allins                                                          Page 5


      Program  Variable Code              C Line Source
      -----------------------------------------------------------------------------------------------------------------------------------
      000004E0 00000000 67 D2 16 00 00       345         rclb    [locb],cl
      000004E5 00000000 67 C0 16 00 00 11    346         rclb    [locb],$11
      000004EB 00000000 66 67 D1 16 01 00    347         rclw    [locw],1
      000004F1 00000000 66 67 D3 16 01 00    348         rclw    [locw],cl
      000004F7 00000000 66 67 C1 16 01 00 +  349         rclw    [locw],$11
      000004FE 00000000 67 D1 16 03 00       350         rcld    [locd],1
      00000503 00000000 67 D3 16 03 00       351         rcld    [locd],cl
      00000508 00000000 67 C1 16 03 00 11    352         rcld    [locd],$11
      0000050E 00000000 67 D0 1E 00 00       353         rcrb    [locb],1
      00000513 00000000 67 D2 1E 00 00       354         rcrb    [locb],cl
      00000518 00000000 67 C0 1E 00 00 11    355         rcrb    [locb],$11
      0000051E 00000000 66 67 D1 1E 01 00    356         rcrw    [locw],1
      00000524 00000000 66 67 D3 1E 01 00    357         rcrw    [locw],cl
      0000052A 00000000 66 67 C1 1E 01 00 +  358         rcrw    [locw],$11
      00000531 00000000 67 D1 1E 03 00       359         rcrd    [locd],1
      00000536 00000000 67 D3 1E 03 00       360         rcrd    [locd],cl
      0000053B 00000000 67 C1 1E 03 00 11    361         rcrd    [locd],$11
      00000541 00000000 67 D0 06 00 00       362         rolb    [locb],1
      00000546 00000000 67 D2 06 00 00       363         rolb    [locb],cl
      0000054B 00000000 67 C0 06 00 00 11    364         rolb    [locb],$11
      00000551 00000000 66 67 D1 06 01 00    365         rolw    [locw],1
      00000557 00000000 66 67 D3 06 01 00    366         rolw    [locw],cl
      0000055D 00000000 66 67 C1 06 01 00 +  367         rolw    [locw],$11
      00000564 00000000 67 D1 06 03 00       368         rold    [locd],1
      00000569 00000000 67 D3 06 03 00       369         rold    [locd],cl
      0000056E 00000000 67 C1 06 03 00 11    370         rold    [locd],$11
      00000574 00000000 67 D0 0E 00 00       371         rorb    [locb],1
      00000579 00000000 67 D2 0E 00 00       372         rorb    [locb],cl
      0000057E 00000000 67 C0 0E 00 00 11    373         rorb    [locb],$11
      00000584 00000000 66 67 D1 0E 01 00    374         rorw    [locw],1
      0000058A 00000000 66 67 D3 0E 01 00    375         rorw    [locw],cl
      00000590 00000000 66 67 C1 0E 01 00 +  376         rorw    [locw],$11
      00000597 00000000 67 D1 0E 03 00       377         rord    [locd],1
      0000059C 00000000 67 D3 0E 03 00       378         rord    [locd],cl
      000005A1 00000000 67 C1 0E 03 00 11    379         rord    [locd],$11
      000005A7 00000000 F3                   380         rep
      000005A8 00000000 F3                   381         repe
      000005A9 00000000 F3                   382         repz
      000005AA 00000000 F2                   383         repne
      000005AB 00000000 F2                   384         repnz
      000005AC 00000000 C3                   385         ret
      000005AD 00000000 C2 22 11             386         ret     $1122
      000005B0 00000000 9E                   387         sahf
      000005B1 00000000 67 D0 26 00 00       388         salb    [locb],1
      000005B6 00000000 67 D2 26 00 00       389         salb    [locb],cl
      000005BB 00000000 67 C0 26 00 00 11    390         salb    [locb],$11
      000005C1 00000000 66 67 D1 26 01 00    391         salw    [locw],1
      000005C7 00000000 66 67 D3 26 01 00    392         salw    [locw],cl
      000005CD 00000000 66 67 C1 26 01 00 +  393         salw    [locw],$11
      000005D4 00000000 67 D1 26 03 00       394         sald    [locd],1
      000005D9 00000000 67 D3 26 03 00       395         sald    [locd],cl
      000005DE 00000000 67 C1 26 03 00 11    396         sald    [locd],$11
      000005E4 00000000 67 D0 3E 00 00       397         sarb    [locb],1
      000005E9 00000000 67 D2 3E 00 00       398         sarb    [locb],cl
      000005EE 00000000 67 C0 3E 00 00 11    399         sarb    [locb],$11
      000005F4 00000000 66 67 D1 3E 01 00    400         sarw    [locw],1
      000005FA 00000000 66 67 D3 3E 01 00    401         sarw    [locw],cl
      00000600 00000000 66 67 C1 3E 01 00 +  402         sarw    [locw],$11
      00000607 00000000 67 D1 3E 03 00       403         sard    [locd],1
      0000060C 00000000 67 D3 3E 03 00       404         sard    [locd],cl
      00000611 00000000 67 C1 3E 03 00 11    405         sard    [locd],$11
      00000617 00000000 67 D0 26 00 00       406         shlb    [locb],1
      0000061C 00000000 67 D2 26 00 00       407         shlb    [locb],cl
      00000621 00000000 67 C0 26 00 00 11    408         shlb    [locb],$11
      00000627 00000000 66 67 D1 26 01 00    409         shlw    [locw],1
      0000062D 00000000 66 67 D3 26 01 00    410         shlw    [locw],cl
      00000633 00000000 66 67 C1 26 01 00 +  411         shlw    [locw],$11
      0000063A 00000000 67 D1 26 03 00       412         shld    [locd],1
      0000063F 00000000 67 D3 26 03 00       413         shld    [locd],cl
      00000644 00000000 67 C1 26 03 00 11    414         shld    [locd],$11
      0000064A 00000000 67 D0 2E 00 00       415         shrb    [locb],1
      0000064F 00000000 67 D2 2E 00 00       416         shrb    [locb],cl
      00000654 00000000 67 C0 2E 00 00 11    417         shrb    [locb],$11
      0000065A 00000000 66 67 D1 2E 01 00    418         shrw    [locw],1
      00000660 00000000 66 67 D3 2E 01 00    419         shrw    [locw],cl
      00000666 00000000 66 67 C1 2E 01 00 +  420         shrw    [locw],$11
      0000066D 00000000 67 D1 2E 03 00       421         shrd    [locd],1
      00000672 00000000 67 D3 2E 03 00       422         shrd    [locd],cl
      00000677 00000000 67 C1 2E 03 00 11    423         shrd    [locd],$11
      0000067D 00000000 1C 11                424         sbb     al,$11
      0000067F 00000000 66 1D 22 11          425         sbb     ax,$1122
      00000683 00000000 1D 44 33 22 11       426         sbb     eax,$11223344
      00000688 00000000 67 80 1E 00 00 11    427         sbbb    [locb],$11
      0000068E 00000000 66 67 81 1E 01 00 +  428         sbbw    [locw],$1122
      00000696 00000000 67 81 1E 03 00 44 +  429         sbbd    [locd],$11223344
      0000069F 00000000 66 67 83 1E 01 00 +  430         sbbw    [locw],$11


                                                                allins                                                          Page 6


      Program  Variable Code              C Line Source
      -----------------------------------------------------------------------------------------------------------------------------------
      000006A6 00000000 67 83 1E 03 00 11    431         sbbd    [locd],$11
      000006AC 00000000 67 18 06 00 00       432         sbbb    [locb],al
      000006B1 00000000 66 67 19 06 01 00    433         sbbw    [locw],ax
      000006B7 00000000 67 19 06 03 00       434         sbbd    [locd],eax
      000006BC 00000000 67 1A 06 00 00       435         sbb     al,[locb]
      000006C1 00000000 66 67 1B 06 01 00    436         sbb     ax,[locw]
      000006C7 00000000 67 1B 06 03 00       437         sbb     eax,[locd]
      000006CC 00000000 AE                   438         scasb
      000006CD 00000000 66 AF                439         scasw
      000006CF 00000000 AF                   440         scasd
      000006D0 00000000 67 0F 97 06 00 00    441         seta    [locb]
      000006D6 00000000 67 0F 93 06 00 00    442         setae   [locb]
      000006DC 00000000 67 0F 92 06 00 00    443         setb    [locb]
      000006E2 00000000 67 0F 96 06 00 00    444         setbe   [locb]
      000006E8 00000000 67 0F 92 06 00 00    445         setc    [locb]
      000006EE 00000000 67 0F 94 06 00 00    446         sete    [locb]
      000006F4 00000000 67 0F 9F 06 00 00    447         setg    [locb]
      000006FA 00000000 67 0F 9D 06 00 00    448         setge   [locb]
      00000700 00000000 67 0F 9C 06 00 00    449         setl    [locb]
      00000706 00000000 67 0F 9E 06 00 00    450         setle   [locb]
      0000070C 00000000 67 0F 96 06 00 00    451         setna   [locb]
      00000712 00000000 67 0F 92 06 00 00    452         setnae  [locb]
      00000718 00000000 67 0F 93 06 00 00    453         setnb   [locb]
      0000071E 00000000 67 0F 97 06 00 00    454         setnbe  [locb]
      00000724 00000000 67 0F 93 06 00 00    455         setnc   [locb]
      0000072A 00000000 67 0F 95 06 00 00    456         setne   [locb]
      00000730 00000000 67 0F 9E 06 00 00    457         setng   [locb]
      00000736 00000000 67 0F 9C 06 00 00    458         setnge  [locb]
      0000073C 00000000 67 0F 9D 06 00 00    459         setnl   [locb]
      00000742 00000000 67 0F 9F 06 00 00    460         setnle  [locb]
      00000748 00000000 67 0F 91 06 00 00    461         setno   [locb]
      0000074E 00000000 67 0F 9B 06 00 00    462         setnp   [locb]
      00000754 00000000 67 0F 99 06 00 00    463         setns   [locb]
      0000075A 00000000 67 0F 95 06 00 00    464         setnz   [locb]
      00000760 00000000 67 0F 90 06 00 00    465         seto    [locb]
      00000766 00000000 67 0F 9A 06 00 00    466         setp    [locb]
      0000076C 00000000 67 0F 9A 06 00 00    467         setpe   [locb]
      00000772 00000000 67 0F 9B 06 00 00    468         setpo   [locb]
      00000778 00000000 67 0F 98 06 00 00    469         sets    [locb]
      0000077E 00000000 67 0F 94 06 00 00    470         setz    [locb]
      00000784 00000000 67 0F 01 06 07 00    471         sgdtd   [locq]
      0000078A 00000000 67 0F 01 0E 07 00    472         sidtd   [locq]
      00000790 00000000 66 67 0F A4 06 01 +  473         shldw   [locw],ax,$11
      00000798 00000000 67 0F A4 06 03 00 +  474         shldd   [locd],eax,$11
      0000079F 00000000 66 67 0F A5 06 01 +  475         shldw   [locw],ax,cl
      000007A6 00000000 67 0F A5 06 03 00    476         shldd   [locd],eax,cl
      000007AC 00000000 66 67 0F AC 06 01 +  477         shrdw   [locw],ax,$11
      000007B4 00000000 67 0F AC 06 03 00 +  478         shrdd   [locd],eax,$11
      000007BB 00000000 66 67 0F AD 06 01 +  479         shrdw   [locw],ax,cl
      000007C2 00000000 67 0F AD 06 03 00    480         shrdd   [locd],eax,cl
      000007C8 00000000 67 0F 00 06 01 00    481         sldt    [locw]
      000007CE 00000000 67 0F 01 26 01 00    482         smsw    [locw]
      000007D4 00000000 F9                   483         stc
      000007D5 00000000 FD                   484         std
      000007D6 00000000 FB                   485         sti
      000007D7 00000000 AA                   486         stosb
      000007D8 00000000 66 AB                487         stosw
      000007DA 00000000 AB                   488         stosd
      000007DB 00000000 67 0F 00 0E 01 00    489         str     [locw]
      000007E1 00000000 2C 11                490         sub     al,$11
      000007E3 00000000 66 2D 22 11          491         sub     ax,$1122
      000007E7 00000000 2D 44 33 22 11       492         sub     eax,$11223344
      000007EC 00000000 67 80 2E 00 00 11    493         subb    [locb],$11
      000007F2 00000000 66 67 81 2E 01 00 +  494         subw    [locw],$1122
      000007FA 00000000 67 81 2E 03 00 44 +  495         subd    [locd],$11223344
      00000803 00000000 66 67 83 2E 01 00 +  496         subw    [locw],$11
      0000080A 00000000 67 83 2E 03 00 11    497         subd    [locd],$11
      00000810 00000000 67 28 06 00 00       498         sub     [locb],al
      00000815 00000000 66 67 29 06 01 00    499         sub     [locw],ax
      0000081B 00000000 67 29 06 03 00       500         sub     [locd],eax
      00000820 00000000 67 2A 26 00 00       501         sub     ah,[locb]
      00000825 00000000 66 67 2B 06 01 00    502         sub     ax,[locw]
      0000082B 00000000 67 2B 06 03 00       503         sub     eax,[locd]
      00000830 00000000 A8 11                504         test    al,$11
      00000832 00000000 66 A9 22 11          505         test    ax,$1122
      00000836 00000000 A9 44 33 22 11       506         test    eax,$11223344
      0000083B 00000000 67 F6 06 00 00 11    507         testb   [locb],$11
      00000841 00000000 66 67 F7 06 01 00 +  508         testw   [locw],$1122
      00000849 00000000 67 F7 06 03 00 44 +  509         testd   [locd],$11223344
      00000852 00000000 67 84 06 00 00       510         test    [locb],al
      00000857 00000000 66 67 85 06 01 00    511         test    [locw],ax
      0000085D 00000000 67 85 06 03 00       512         test    [locd],eax
      00000862 00000000 67 0F 00 26 01 00    513         verr    [locw]
      00000868 00000000 67 0F 00 2E 01 00    514         verw    [locw]
      0000086E 00000000 9B                   515         wait
      0000086F 00000000 0F 09                516         wbinvd


                                                                allins                                                          Page 7


      Program  Variable Code              C Line Source
      -----------------------------------------------------------------------------------------------------------------------------------
      00000871 00000000 67 0F C0 06 00 00    517         xadd    [locb],al
      00000877 00000000 66 67 0F C1 06 01 +  518         xadd    [locw],ax
      0000087E 00000000 67 0F C1 06 03 00    519         xadd    [locd],eax
      00000884 00000000 67 86 06 00 00       520         xchg    [locb],al
      00000889 00000000 67 86 06 00 00       521         xchg    al,[locb]
      0000088E 00000000 66 67 87 06 01 00    522         xchg    [locw],ax
      00000894 00000000 66 67 87 06 01 00    523         xchg    ax,[locw]
      0000089A 00000000 67 87 06 03 00       524         xchg    [locd],eax
      0000089F 00000000 67 87 06 03 00       525         xchg    eax,[locd]
      000008A4 00000000 66 93                526         xchg    ax,bx
      000008A6 00000000 66 93                527         xchg    bx,ax
      000008A8 00000000 93                   528         xchg    eax,ebx
      000008A9 00000000 93                   529         xchg    ebx,eax
      000008AA 00000000 D7                   530         xlatb
      000008AB 00000000 34 11                531         xor     al,$11
      000008AD 00000000 66 35 22 11          532         xor     ax,$1122
      000008B1 00000000 35 44 33 22 11       533         xor     eax,$11223344
      000008B6 00000000 67 80 36 00 00 11    534         xorb    [locb],$11
      000008BC 00000000 66 67 81 36 01 00 +  535         xorw    [locw],$1122
      000008C4 00000000 67 81 36 03 00 44 +  536         xord    [locd],$11223344
      000008CD 00000000 66 67 83 36 01 00 +  537         xorw    [locw],$11
      000008D4 00000000 67 83 36 03 00 11    538         xord    [locd],$11
      000008DA 00000000 67 30 06 00 00       539         xor     [locb],al
      000008DF 00000000 66 67 31 06 01 00    540         xor     [locw],ax
      000008E5 00000000 67 31 06 03 00       541         xor     [locd],eax
      000008EA 00000000 67 32 1E 00 00       542         xor     bl,[locb]
      000008EF 00000000 66 67 33 1E 01 00    543         xor     bx,[locw]
      000008F5 00000000 67 33 1E 03 00       544         xor     ebx,[locd]
      000008FA 00000000 D9 F0                545         f2xm1
      000008FC 00000000 D9 E1                546         fabs
      000008FE 00000000 D8 C1                547         fadd    st,st(1)
      00000900 00000000 DC C1                548         fadd    st(1),st
      00000902 00000000 67 D8 06 03 00       549         fadds   [locd]
      00000907 00000000 67 DC 06 07 00       550         faddd   [locq]
      0000090C 00000000 DE C2                551         faddp   st(2),st
      0000090E 00000000 67 DF 26 0F 00       552         fbld    [loct]
      00000913 00000000 67 DF 36 0F 00       553         fbstp   [loct]
      00000918 00000000 D9 E0                554         fchs
      0000091A 00000000 9B DB E2             555         fclex
      0000091D 00000000 DB E2                556         fnclex
      0000091F 00000000 D8 D1                557         fcom    st(1)
      00000921 00000000 67 D8 16 03 00       558         fcoms   [locd]
      00000926 00000000 67 DC 16 07 00       559         fcomd   [locq]
      0000092B 00000000 D8 D9                560         fcomp   st(1)
      0000092D 00000000 67 D8 1E 03 00       561         fcomps  [locd]
      00000932 00000000 67 DC 1E 07 00       562         fcompd  [locq]
      00000937 00000000 DE D9                563         fcompp
      00000939 00000000 D9 FF                564         fcos
      0000093B 00000000 D9 F6                565         fdecstp
      0000093D 00000000 DC F9                566         fdiv    st(1),st
      0000093F 00000000 67 D8 36 03 00       567         fdivs   [locd]
      00000944 00000000 67 DC 36 07 00       568         fdivd   [locq]
      00000949 00000000 DE F9                569         fdivp   st(1),st
      0000094B 00000000 DC F1                570         fdivr   st(1),st
      0000094D 00000000 67 D8 3E 03 00       571         fdivrs  [locd]
      00000952 00000000 67 DC 3E 07 00       572         fdivrd  [locq]
      00000957 00000000 DE F1                573         fdivrp  st(1),st
      00000959 00000000 DD C1                574         ffree   st(1)
      0000095B 00000000 67 DE 06 01 00       575         fiaddw  [locw]
      00000960 00000000 67 DA 06 03 00       576         fiaddd  [locd]
      00000965 00000000 67 DE 16 01 00       577         ficomw  [locw]
      0000096A 00000000 67 DA 16 03 00       578         ficomd  [locd]
      0000096F 00000000 67 DE 1E 01 00       579         ficompw [locw]
      00000974 00000000 67 DA 1E 03 00       580         ficompd [locd]
      00000979 00000000 67 DE 36 01 00       581         fidivw  [locw]
      0000097E 00000000 67 DA 36 03 00       582         fidivd  [locd]
      00000983 00000000 67 DE 3E 01 00       583         fidivrw [locw]
      00000988 00000000 67 DA 3E 03 00       584         fidivrd [locd]
      0000098D 00000000 67 DF 06 01 00       585         fildw   [locw]
      00000992 00000000 67 DB 06 03 00       586         fildd   [locd]
      00000997 00000000 67 DF 2E 07 00       587         fildq   [locq]
      0000099C 00000000 67 DE 0E 01 00       588         fimulw  [locw]
      000009A1 00000000 67 DA 0E 03 00       589         fimuld  [locd]
      000009A6 00000000 D9 F7                590         fincstp
      000009A8 00000000 9B DB E3             591         finit
      000009AB 00000000 DB E3                592         fninit
      000009AD 00000000 67 DF 16 01 00       593         fistw   [locw]
      000009B2 00000000 67 DB 16 03 00       594         fistd   [locd]
      000009B7 00000000 67 DF 1E 01 00       595         fistpw  [locw]
      000009BC 00000000 67 DB 1E 03 00       596         fistpd  [locd]
      000009C1 00000000 67 DF 3E 07 00       597         fistpq  [locq]
      000009C6 00000000 67 DE 26 01 00       598         fisubw  [locw]
      000009CB 00000000 67 DA 26 03 00       599         fisubd  [locd]
      000009D0 00000000 67 DE 2E 01 00       600         fisubrw [locw]
      000009D5 00000000 67 DA 2E 03 00       601         fisubrd [locd]
      000009DA 00000000 D9 C1                602         fld     st(1)


                                                                allins                                                          Page 8


      Program  Variable Code              C Line Source
      -----------------------------------------------------------------------------------------------------------------------------------
      000009DC 00000000 67 D9 06 03 00       603         flds    [locd]
      000009E1 00000000 67 DD 06 07 00       604         fldd    [locq]
      000009E6 00000000 67 DB 2E 0F 00       605         fldl    [loct]
      000009EB 00000000 67 D9 2E 01 00       606         fldcw   [locw]
      000009F0 00000000 67 D9 26 01 00       607         fldenvw [locw]
      000009F5 00000000 D9 EC                608         fldlg2
      000009F7 00000000 D9 ED                609         fldln2
      000009F9 00000000 D9 EA                610         fldl2e
      000009FB 00000000 D9 E9                611         fldl2t
      000009FD 00000000 D9 EB                612         fldpi
      000009FF 00000000 D9 EE                613         fldz
      00000A01 00000000 D9 E8                614         fld1
      00000A03 00000000 D8 C9                615         fmul    st,st(1)
      00000A05 00000000 67 D8 0E 03 00       616         fmuls   [locd]
      00000A0A 00000000 67 DC 0E 07 00       617         fmuld   [locq]
      00000A0F 00000000 DE C9                618         fmulp   st(1),st
      00000A11 00000000 D9 D0                619         fnop
      00000A13 00000000 D9 F3                620         fpatan
      00000A15 00000000 D9 F8                621         fprem
      00000A17 00000000 D9 F5                622         fprem1
      00000A19 00000000 D9 F2                623         fptan
      00000A1B 00000000 D9 FC                624         frndint
      00000A1D 00000000 67 DD 26 00 00       625         frstord [locb]
      00000A22 00000000 67 9B DD 36 00 00    626         fsaved  [locb]
      00000A28 00000000 67 DD 36 00 00       627         fnsaved [locb]
      00000A2D 00000000 D9 FD                628         fscale
      00000A2F 00000000 D9 FE                629         fsin
      00000A31 00000000 D9 FB                630         fsincos
      00000A33 00000000 D9 FA                631         fsqrt
      00000A35 00000000 DD D1                632         fst     st(1)
      00000A37 00000000 67 D9 16 03 00       633         fsts    [locd]
      00000A3C 00000000 67 DD 16 07 00       634         fstd    [locq]
      00000A41 00000000 67 9B D9 3E 01 00    635         fstcw   [locw]
      00000A47 00000000 67 D9 3E 01 00       636         fnstcw  [locw]
      00000A4C 00000000 67 9B D9 36 00 00    637         fstenvd [locb]
      00000A52 00000000 DD D9                638         fstp    st(1)
      00000A54 00000000 67 D9 1E 03 00       639         fstps   [locd]
      00000A59 00000000 67 DD 1E 07 00       640         fstpd   [locq]
      00000A5E 00000000 67 DB 3E 0F 00       641         fstpl   [loct]
      00000A63 00000000 67 9B DD 3E 01 00    642         fstsw   [locw]
      00000A69 00000000 67 DD 3E 01 00       643         fnstsw  [locw]
      00000A6E 00000000 9B DF E0             644         fstsw   ax
      00000A71 00000000 DF E0                645         fnstsw  ax
      00000A73 00000000 D8 E1                646         fsub    st,st(1)
      00000A75 00000000 67 D8 26 03 00       647         fsubs   [locd]
      00000A7A 00000000 67 DC 26 07 00       648         fsubd   [locq]
      00000A7F 00000000 DE E9                649         fsubp   st(1),st
      00000A81 00000000 D8 E9                650         fsubr   st,st(1)
      00000A83 00000000 67 D8 2E 03 00       651         fsubrs  [locd]
      00000A88 00000000 67 DC 2E 07 00       652         fsubrd  [locq]
      00000A8D 00000000 DE E1                653         fsubrp  st(1),st
      00000A8F 00000000 D9 E4                654         ftst
      00000A91 00000000 DD E1                655         fucom   st(1)
      00000A93 00000000 DD E9                656         fucomp  st(1)
      00000A95 00000000 DA E9                657         fucompp
      00000A97 00000000 9B                   658         fwait
      00000A98 00000000 D9 E5                659         fxam
      00000A9A 00000000 D9 C9                660         fxch
      00000A9C 00000000 D9 F4                661         fxtract
      00000A9E 00000000 D9 F1                662         fyl2x
      00000AA0 00000000 D9 F9                663         fyl2xp1
      00000AA2 00000000 D9 F0                664         f2xm1
      00000AA4 00000000                      665 !
      00000AA4 00000000                      666 ! Now, all the modes. Since listing the modes for each and every instruction
      00000AA4 00000000                      667 ! is not practical, we just list all the modes for a single instruction
      00000AA4 00000000                      668 ! (add). This extrapolates fairly well, since the same code is used in
      00000AA4 00000000                      669 ! every instruction.
      00000AA4 00000000                      670 !
      00000AA4 00000000 04 08                671         add     al,8
      00000AA6 00000000 02 C3                672         add     al,bl
      00000AA8 00000000 67 02 06 00 00       673         add     al,[locb]
      00000AAD 00000000 67 02 04             674         add     al,[si]
      00000AB0 00000000 67 02 05             675         add     al,[di]
      00000AB3 00000000 67 02 46 00          676         add     al,[bp]
      00000AB7 00000000 67 02 07             677         add     al,[bx]
      00000ABA 00000000 67 02 44 55          678         add     al,$55[si]
      00000ABE 00000000 67 02 84 66 55       679         add     al,$5566[si]
      00000AC3 00000000 67 02 45 55          680         add     al,$55[di]
      00000AC7 00000000 67 02 85 66 55       681         add     al,$5566[di]
      00000ACC 00000000 67 02 46 55          682         add     al,$55[bp]
      00000AD0 00000000 67 02 86 66 55       683         add     al,$5566[bp]
      00000AD5 00000000 67 02 47 55          684         add     al,$55[bx]
      00000AD9 00000000 67 02 87 66 55       685         add     al,$5566[bx]
      00000ADE 00000000 67 02 00             686         add     al,[bx+si]
      00000AE1 00000000 67 02 01             687         add     al,[bx+di]
      00000AE4 00000000 67 02 02             688         add     al,[bp+si]


                                                                allins                                                          Page 9


      Program  Variable Code              C Line Source
      -----------------------------------------------------------------------------------------------------------------------------------
      00000AE7 00000000 67 02 03             689         add     al,[bp+di]
      00000AEA 00000000 67 02 40 55          690         add     al,$55[bx+si]
      00000AEE 00000000 67 02 41 55          691         add     al,$55[bx+di]
      00000AF2 00000000 67 02 42 55          692         add     al,$55[bp+si]
      00000AF6 00000000 67 02 43 55          693         add     al,$55[bp+di]
      00000AFA 00000000 67 02 80 66 55       694         add     al,$5566[bx+si]
      00000AFF 00000000 67 02 81 66 55       695         add     al,$5566[bx+di]
      00000B04 00000000 67 02 82 66 55       696         add     al,$5566[bp+si]
      00000B09 00000000 67 02 83 66 55       697         add     al,$5566[bp+di]
      00000B0E 00000000 67 00 06 00 00       698         add     [locb],al
      00000B13 00000000 67 00 04             699         add     [si],al
      00000B16 00000000 67 00 05             700         add     [di],al
      00000B19 00000000 67 00 46 00          701         add     [bp],al
      00000B1D 00000000 67 00 07             702         add     [bx],al
      00000B20 00000000 67 00 44 55          703         add     $55[si],al
      00000B24 00000000 67 00 84 66 55       704         add     $5566[si],al
      00000B29 00000000 67 00 45 55          705         add     $55[di],al
      00000B2D 00000000 67 00 85 66 55       706         add     $5566[di],al
      00000B32 00000000 67 00 46 55          707         add     $55[bp],al
      00000B36 00000000 67 00 86 66 55       708         add     $5566[bp],al
      00000B3B 00000000 67 00 47 55          709         add     $55[bx],al
      00000B3F 00000000 67 00 87 66 55       710         add     $5566[bx],al
      00000B44 00000000 67 00 00             711         add     [bx+si],al
      00000B47 00000000 67 00 01             712         add     [bx+di],al
      00000B4A 00000000 67 00 02             713         add     [bp+si],al
      00000B4D 00000000 67 00 03             714         add     [bp+di],al
      00000B50 00000000 67 00 40 55          715         add     $55[bx+si],al
      00000B54 00000000 67 00 41 55          716         add     $55[bx+di],al
      00000B58 00000000 67 00 42 55          717         add     $55[bp+si],al
      00000B5C 00000000 67 00 43 55          718         add     $55[bp+di],al
      00000B60 00000000 67 00 80 66 55       719         add     $5566[bx+si],al
      00000B65 00000000 67 00 81 66 55       720         add     $5566[bx+di],al
      00000B6A 00000000 67 00 82 66 55       721         add     $5566[bp+si],al
      00000B6F 00000000 67 00 83 66 55       722         add     $5566[bp+di],al
      00000B74 00000000 66 05 08 00          723         add     ax,8
      00000B78 00000000 66 03 C3             724         add     ax,bx
      00000B7B 00000000 66 67 03 06 01 00    725         add     ax,[locw]
      00000B81 00000000 66 67 03 04          726         add     ax,[si]
      00000B85 00000000 66 67 03 05          727         add     ax,[di]
      00000B89 00000000 66 67 03 46 00       728         add     ax,[bp]
      00000B8E 00000000 66 67 03 07          729         add     ax,[bx]
      00000B92 00000000 66 67 03 44 55       730         add     ax,$55[si]
      00000B97 00000000 66 67 03 84 66 55    731         add     ax,$5566[si]
      00000B9D 00000000 66 67 03 45 55       732         add     ax,$55[di]
      00000BA2 00000000 66 67 03 85 66 55    733         add     ax,$5566[di]
      00000BA8 00000000 66 67 03 46 55       734         add     ax,$55[bp]
      00000BAD 00000000 66 67 03 86 66 55    735         add     ax,$5566[bp]
      00000BB3 00000000 66 67 03 47 55       736         add     ax,$55[bx]
      00000BB8 00000000 66 67 03 87 66 55    737         add     ax,$5566[bx]
      00000BBE 00000000 66 67 03 00          738         add     ax,[bx+si]
      00000BC2 00000000 66 67 03 01          739         add     ax,[bx+di]
      00000BC6 00000000 66 67 03 02          740         add     ax,[bp+si]
      00000BCA 00000000 66 67 03 03          741         add     ax,[bp+di]
      00000BCE 00000000 66 67 03 40 55       742         add     ax,$55[bx+si]
      00000BD3 00000000 66 67 03 41 55       743         add     ax,$55[bx+di]
      00000BD8 00000000 66 67 03 42 55       744         add     ax,$55[bp+si]
      00000BDD 00000000 66 67 03 43 55       745         add     ax,$55[bp+di]
      00000BE2 00000000 66 67 03 80 66 55    746         add     ax,$5566[bx+si]
      00000BE8 00000000 66 67 03 81 66 55    747         add     ax,$5566[bx+di]
      00000BEE 00000000 66 67 03 82 66 55    748         add     ax,$5566[bp+si]
      00000BF4 00000000 66 67 03 83 66 55    749         add     ax,$5566[bp+di]
      00000BFA 00000000 66 67 01 06 01 00    750         add     [locw],ax
      00000C00 00000000 66 67 01 04          751         add     [si],ax
      00000C04 00000000 66 67 01 05          752         add     [di],ax
      00000C08 00000000 66 67 01 46 00       753         add     [bp],ax
      00000C0D 00000000 66 67 01 07          754         add     [bx],ax
      00000C11 00000000 66 67 01 44 55       755         add     $55[si],ax
      00000C16 00000000 66 67 01 84 66 55    756         add     $5566[si],ax
      00000C1C 00000000 66 67 01 45 55       757         add     $55[di],ax
      00000C21 00000000 66 67 01 85 66 55    758         add     $5566[di],ax
      00000C27 00000000 66 67 01 46 55       759         add     $55[bp],ax
      00000C2C 00000000 66 67 01 86 66 55    760         add     $5566[bp],ax
      00000C32 00000000 66 67 01 47 55       761         add     $55[bx],ax
      00000C37 00000000 66 67 01 87 66 55    762         add     $5566[bx],ax
      00000C3D 00000000 66 67 01 00          763         add     [bx+si],ax
      00000C41 00000000 66 67 01 01          764         add     [bx+di],ax
      00000C45 00000000 66 67 01 02          765         add     [bp+si],ax
      00000C49 00000000 66 67 01 03          766         add     [bp+di],ax
      00000C4D 00000000 66 67 01 40 55       767         add     $55[bx+si],ax
      00000C52 00000000 66 67 01 41 55       768         add     $55[bx+di],ax
      00000C57 00000000 66 67 01 42 55       769         add     $55[bp+si],ax
      00000C5C 00000000 66 67 01 43 55       770         add     $55[bp+di],ax
      00000C61 00000000 66 67 01 80 66 55    771         add     $5566[bx+si],ax
      00000C67 00000000 66 67 01 81 66 55    772         add     $5566[bx+di],ax
      00000C6D 00000000 66 67 01 82 66 55    773         add     $5566[bp+si],ax
      00000C73 00000000 66 67 01 83 66 55    774         add     $5566[bp+di],ax


                                                                allins                                                          Page 10


      Program  Variable Code              C Line Source
      -----------------------------------------------------------------------------------------------------------------------------------
      00000C79 00000000 83 C0 08             775         add     eax,8
      00000C7C 00000000 03 C3                776         add     eax,ebx
      00000C7E 00000000 67 03 06 03 00       777         add     eax,[locd]
      00000C83 00000000 03 00                778         add     eax,[eax]
      00000C85 00000000 03 04 85 00 00 00 +  779         add     eax,[eax*4]
      00000C8C 00000000 03 40 55             780         add     eax,$55[eax]
      00000C8F 00000000 03 80 88 77 66 55    781         add     eax,$55667788[eax]
      00000C95 00000000 03 04 85 55 00 00 +  782         add     eax,$55[eax*4]
      00000C9C 00000000 03 04 85 88 77 66 +  783         add     eax,$55667788[eax*4]
      00000CA3 00000000 03 04 18             784         add     eax,[eax+ebx]
      00000CA6 00000000 03 44 18 55          785         add     eax,$55[eax+ebx]
      00000CAA 00000000 03 84 18 88 77 66 +  786         add     eax,$55667788[eax+ebx]
      00000CB1 00000000 03 04 98             787         add     eax,[eax+ebx*4]
      00000CB4 00000000 03 44 98 55          788         add     eax,$55[eax+ebx*4]
      00000CB8 00000000 03 84 98 88 77 66 +  789         add     eax,$55667788[eax+ebx*4]
      00000CBF 00000000 03 D8                790         add     ebx,eax
      00000CC1 00000000 67 01 06 03 00       791         add     [locd],eax
      00000CC6 00000000 01 00                792         add     [eax],eax
      00000CC8 00000000 01 40 55             793         add     $55[eax],eax
      00000CCB 00000000 01 80 88 77 66 55    794         add     $55667788[eax],eax
      00000CD1 00000000 01 04 18             795         add     [eax+ebx],eax
      00000CD4 00000000 01 44 18 55          796         add     $55[eax+ebx],eax
      00000CD8 00000000 01 84 18 88 77 66 +  797         add     $55667788[eax+ebx],eax
      00000CDF 00000000 01 04 98             798         add     [eax+ebx*4],eax
      00000CE2 00000000 01 44 98 55          799         add     $55[eax+ebx*4],eax
      00000CE6 00000000 01 84 98 88 77 66 +  800         add     $55667788[eax+ebx*4],eax
      00000CED 00000000                      801 !
      00000CED 00000000                      802 ! Other instructions. These instructions are included here because
      00000CED 00000000                      803 ! they are in a different format from other assemblers, or are
      00000CED 00000000                      804 ! unimplemented by other assemblers. They should eventually be
      00000CED 00000000                      805 ! merged with the normal instructions.
      00000CED 00000000                      806 !
      00000CED 00000000 9A 66 55 44 33 22 +  807         callf   $1122,$33445566
      00000CF4 00000000 67 9A 44 33 22 11    808         callmf  $1122,$3344
      00000CFA 00000000 9A 66 55 44 33 22 +  809         calllf  $1122,$33445566
      00000D01 00000000 EA 66 55 44 33 22 +  810         jmpf    $1122,$33445566
      00000D08 00000000 67 EA 44 33 22 11    811         jmpmf   $1122,$3344
      00000D0E 00000000 EA 66 55 44 33 22 +  812         jmplf   $1122,$33445566
      00000D15 00000000 FF 1D 44 33 22 11    813         callf   [$11223344]
      00000D1B 00000000 67 FF 1E 22 11       814         callmf  [$1122]
      00000D20 00000000 FF 1D 44 33 22 11    815         calllf  [$11223344]
      00000D26 00000000 FF 2D 44 33 22 11    816         jmpf    [$11223344]
      00000D2C 00000000 67 FF 2E 22 11       817         jmpmf   [$1122]
      00000D31 00000000 FF 2D 44 33 22 11    818         jmplf   [$11223344]
      00000D37 00000000 66 67 0F B5 06 22 +  819         lgs     ax,[$1122]
      00000D3E 00000000 0F B5 05 44 33 22 +  820         lgs     eax,[$11223344]
      00000D45 00000000 66 67 0F B2 06 22 +  821         lss     ax,[$1122]
      00000D4C 00000000 0F B2 05 44 33 22 +  822         lss     eax,[$11223344]
      00000D53 00000000 66 67 0F B4 06 22 +  823         lfs     ax,[$1122]
      00000D5A 00000000 0F B4 05 44 33 22 +  824         lfs     eax,[$11223344]
      00000D61 00000000 66 67 C5 06 22 11    825         lds     ax,[$1122]
      00000D67 00000000 C5 05 44 33 22 11    826         lds     eax,[$11223344]
      00000D6D 00000000 66 67 C4 06 22 11    827         les     ax,[$1122]
      00000D73 00000000 C4 05 44 33 22 11    828         les     eax,[$11223344]
      00000D79 00000000 65                   829         gs
      00000D7A 00000000 36                   830         ss
      00000D7B 00000000 64                   831         fs
      00000D7C 00000000 3E                   832         ds
      00000D7D 00000000 26                   833         es
      00000D7E 00000000 67 0F C7 06 22 11    834         cmpxchg8b [$1122]
      00000D84 00000000 0F C7 05 44 33 22 +  835         cmpxchg8b [$11223344]
      00000D8B 00000000 0F A2                836         cpuid
      00000D8D 00000000 0F 32                837         rdmsr
      00000D8F 00000000 0F 30                838         wrmsr
      00000D91 00000000 0F AA                839         rsm
      00000D93 00000000                      840 
      00000D93 00000000                      841 !!!!!!!!!!!!!!!!!!!!!!!!!!!!!!!!!!!!!!!!!!!!!!!!!!!!!!!!!!!!!!!!!!!!!!!!!!!!!!!
      00000D93 00000000                      842 !                                                                             !
      00000D93 00000000                      843 ! Perform the suite in small mode                                             !
      00000D93 00000000                      844 !                                                                             !
      00000D93 00000000                      845 !!!!!!!!!!!!!!!!!!!!!!!!!!!!!!!!!!!!!!!!!!!!!!!!!!!!!!!!!!!!!!!!!!!!!!!!!!!!!!!
      00000D93 00000000                      846 
      00000D93 00000000                      847         small
      00000D93 00000000                      848 !
      00000D93 00000000                      849 ! First, all the instructions in alphabetical order
      00000D93 00000000                      850 !
      00000D93 00000000 37                   851         aaa
      00000D94 00000000 D5 0A                852         aad
      00000D96 00000000 D4 0A                853         aam
      00000D98 00000000 3F                   854         aas
      00000D99 00000000 10 06 00 00          855         adc     [locb],al        
      00000D9D 00000000 11 06 01 00          856         adc     [locw],ax
      00000DA1 00000000 66 11 06 03 00       857         adc     [locd],eax
      00000DA6 00000000 12 06 00 00          858         adc     al,[locb]
      00000DAA 00000000 13 06 01 00          859         adc     ax,[locw]
      00000DAE 00000000 66 13 06 03 00       860         adc     eax,[locd]


                                                                allins                                                          Page 11


      Program  Variable Code              C Line Source
      -----------------------------------------------------------------------------------------------------------------------------------
      00000DB3 00000000 14 11                861         adc     al,$11
      00000DB5 00000000 15 22 11             862         adc     ax,$1122
      00000DB8 00000000 66 15 44 33 22 11    863         adc     eax,$11223344
      00000DBE 00000000 80 16 00 00 11       864         adcb    [locb],$11
      00000DC3 00000000 81 16 01 00 22 11    865         adcw    [locw],$1122
      00000DC9 00000000 66 81 16 03 00 44 +  866         adcd    [locd],$11223344
      00000DD2 00000000 83 16 01 00 11       867         adcw    [locw],$11
      00000DD7 00000000 66 83 16 03 00 11    868         adcd    [locd],$11
      00000DDD 00000000 04 11                869         add     al,$11
      00000DDF 00000000 05 22 11             870         add     ax,$1122
      00000DE2 00000000 66 05 44 33 22 11    871         add     eax,$11223344
      00000DE8 00000000 80 06 00 00 11       872         addb    [locb],$11
      00000DED 00000000 81 06 01 00 22 11    873         addw    [locw],$1122
      00000DF3 00000000 66 81 06 03 00 44 +  874         addd    [locd],$11223344
      00000DFC 00000000 83 06 01 00 11       875         addw    [locw],$11
      00000E01 00000000 66 83 06 03 00 11    876         addd    [locd],$11
      00000E07 00000000 00 06 00 00          877         add     [locb],al
      00000E0B 00000000 01 06 01 00          878         add     [locw],ax
      00000E0F 00000000 66 01 06 03 00       879         add     [locd],eax
      00000E14 00000000 02 1E 00 00          880         add     bl,[locb]
      00000E18 00000000 03 1E 01 00          881         add     bx,[locw]
      00000E1C 00000000 66 03 1E 03 00       882         add     ebx,[locd]
      00000E21 00000000 20 06 00 00          883         and     [locb],al        
      00000E25 00000000 21 06 01 00          884         and     [locw],ax
      00000E29 00000000 66 21 06 03 00       885         and     [locd],eax
      00000E2E 00000000 22 06 00 00          886         and     al,[locb]
      00000E32 00000000 23 06 01 00          887         and     ax,[locw]
      00000E36 00000000 66 23 06 03 00       888         and     eax,[locd]
      00000E3B 00000000 24 11                889         and     al,$11
      00000E3D 00000000 25 22 11             890         and     ax,$1122
      00000E40 00000000 66 25 44 33 22 11    891         and     eax,$11223344
      00000E46 00000000 80 26 00 00 11       892         andb    [locb],$11
      00000E4B 00000000 81 26 01 00 22 11    893         andw    [locw],$1122
      00000E51 00000000 66 81 26 03 00 44 +  894         andd    [locd],$11223344
      00000E5A 00000000 83 26 01 00 11       895         andw    [locw],$11
      00000E5F 00000000 66 83 26 03 00 11    896         andd    [locd],$11
      00000E65 00000000 63 06 01 00          897         arpl    [locw],ax
      00000E69 00000000 62 06 03 00          898         bound   ax,[locd]
      00000E6D 00000000 66 62 06 07 00       899         bound   eax,[locq]
      00000E72 00000000 0F BC 06 01 00       900         bsf     ax,[locw]
      00000E77 00000000 66 0F BC 06 03 00    901         bsf     eax,[locd]
      00000E7D 00000000 0F BD 06 01 00       902         bsr     ax,[locw]
      00000E82 00000000 66 0F BD 06 03 00    903         bsr     eax,[locd]
      00000E88 00000000 66 0F C8             904         bswap   eax
      00000E8B 00000000 0F A3 06 01 00       905         bt      [locw],ax
      00000E90 00000000 66 0F A3 06 03 00    906         bt      [locd],eax
      00000E96 00000000 0F BA 26 01 00 11    907         btw     [locw],$11
      00000E9C 00000000 66 0F BA 26 03 00 +  908         btd     [locd],$11
      00000EA3 00000000 0F BB 06 01 00       909         btc     [locw],ax
      00000EA8 00000000 66 0F BB 06 03 00    910         btc     [locd],eax
      00000EAE 00000000 0F BA 3E 01 00 11    911         btcw    [locw],$11
      00000EB4 00000000 66 0F BA 3E 03 00 +  912         btcd    [locd],$11
      00000EBB 00000000 0F B3 06 01 00       913         btr     [locw],ax
      00000EC0 00000000 66 0F B3 06 03 00    914         btr     [locd],eax
      00000EC6 00000000 0F BA 36 01 00 11    915         btrw    [locw],$11
      00000ECC 00000000 66 0F BA 36 03 00 +  916         btrd    [locd],$11
      00000ED3 00000000 0F AB 06 01 00       917         bts     [locw],ax
      00000ED8 00000000 66 0F AB 06 03 00    918         bts     [locd],eax
      00000EDE 00000000 0F BA 2E 01 00 11    919         btsw    [locw],$11
      00000EE4 00000000 66 0F BA 2E 03 00 +  920         btsd    [locd],$11
      00000EEB 00000000 E8 12 F1             921         call    start
      00000EEE 00000000 FF 16 01 00          922         callm   [locw]
      00000EF2 00000000 66 FF 16 03 00       923         calll   [locd]
      00000EF7 00000000 98                   924         cbw
      00000EF8 00000000 66 99                925         cdq
      00000EFA 00000000 F8                   926         clc
      00000EFB 00000000 FC                   927         cld
      00000EFC 00000000 FA                   928         cli
      00000EFD 00000000 0F 06                929         clts
      00000EFF 00000000 F5                   930         cmc
      00000F00 00000000 3C 11                931         cmp     al,$11
      00000F02 00000000 3D 22 11             932         cmp     ax,$1122
      00000F05 00000000 66 3D 44 33 22 11    933         cmp     eax,$11223344
      00000F0B 00000000 80 3E 00 00 11       934         cmpb    [locb],$11
      00000F10 00000000 81 3E 01 00 22 11    935         cmpw    [locw],$1122
      00000F16 00000000 66 81 3E 03 00 44 +  936         cmpd    [locd],$11223344
      00000F1F 00000000 83 3E 01 00 11       937         cmpw    [locw],$11
      00000F24 00000000 66 83 3E 03 00 11    938         cmpd    [locd],$11
      00000F2A 00000000 38 06 00 00          939         cmp     [locb],al
      00000F2E 00000000 39 06 01 00          940         cmp     [locw],ax
      00000F32 00000000 66 39 06 03 00       941         cmp     [locd],eax
      00000F37 00000000 3A 1E 00 00          942         cmp     bl,[locb]
      00000F3B 00000000 3B 1E 01 00          943         cmp     bx,[locw]
      00000F3F 00000000 66 3B 1E 03 00       944         cmp     ebx,[locd]
      00000F44 00000000 A6                   945         cmpsb
      00000F45 00000000 A7                   946         cmpsw


                                                                allins                                                          Page 12


      Program  Variable Code              C Line Source
      -----------------------------------------------------------------------------------------------------------------------------------
      00000F46 00000000 66 A7                947         cmpsd
      00000F48 00000000 0F B0 06 00 00       948         cmpxchg [locb],al
      00000F4D 00000000 0F B1 06 01 00       949         cmpxchg [locw],ax
      00000F52 00000000 99                   950         cwd
      00000F53 00000000 66 98                951         cwde
      00000F55 00000000 27                   952         daa
      00000F56 00000000 2F                   953         das
      00000F57 00000000 FE 0E 00 00          954         decb    [locb]
      00000F5B 00000000 FF 0E 01 00          955         decw    [locw]
      00000F5F 00000000 66 FF 0E 03 00       956         decd    [locd]
      00000F64 00000000 48                   957         dec     ax
      00000F65 00000000 66 48                958         dec     eax        
      00000F67 00000000 F6 36 00 00          959         divb    [locb]
      00000F6B 00000000 F7 36 01 00          960         divw    [locw]
      00000F6F 00000000 66 F7 36 03 00       961         divd    [locd]
      00000F74 00000000 C8 22 11 33          962         enter   $1122,$33
      00000F78 00000000 F4                   963         hlt
      00000F79 00000000 F6 3E 00 00          964         idivb   [locb]
      00000F7D 00000000 F7 3E 01 00          965         idivw   [locw]
      00000F81 00000000 66 F7 3E 03 00       966         idivd   [locd]
      00000F86 00000000 F6 2E 00 00          967         imulb   [locb]
      00000F8A 00000000 F7 2E 01 00          968         imulw   [locw]
      00000F8E 00000000 66 F7 2E 03 00       969         imuld   [locd]
      00000F93 00000000 0F AF 06 01 00       970         imul    ax,[locw]
      00000F98 00000000 66 0F AF 06 03 00    971         imul    eax,[locd]
      00000F9E 00000000 6B 06 01 00 11       972         imul    ax,[locw],$11
      00000FA3 00000000 66 6B 06 03 00 11    973         imul    eax,[locd],$11
      00000FA9 00000000 6B C0 11             974         imul    ax,$11
      00000FAC 00000000 66 6B C0 11          975         imul    eax,$11
      00000FB0 00000000 69 06 01 00 22 11    976         imul    ax,[locw],$1122
      00000FB6 00000000 66 69 06 03 00 44 +  977         imul    eax,[locd],$11223344
      00000FBF 00000000 69 C0 22 11          978         imul    ax,$1122
      00000FC3 00000000 66 69 C0 44 33 22 +  979         imul    eax,$11223344
      00000FCA 00000000 E4 11                980         in      al,$11
      00000FCC 00000000 E5 11                981         in      ax,$11
      00000FCE 00000000 66 E5 11             982         in      eax,$11
      00000FD1 00000000 EC                   983         in      al,dx
      00000FD2 00000000 ED                   984         in      ax,dx
      00000FD3 00000000 66 ED                985         in      eax,dx
      00000FD5 00000000 FE 06 00 00          986         incb    [locb]
      00000FD9 00000000 FF 06 01 00          987         incw    [locw]
      00000FDD 00000000 66 FF 06 03 00       988         incd    [locd]
      00000FE2 00000000 40                   989         inc     ax
      00000FE3 00000000 66 40                990         inc     eax
      00000FE5 00000000 6C                   991         insb
      00000FE6 00000000 6D                   992         insw
      00000FE7 00000000 66 6D                993         insd
      00000FE9 00000000 CC                   994         int     3
      00000FEA 00000000 CD 11                995         int     $11
      00000FEC 00000000 CE                   996         into
      00000FED 00000000 0F 08                997         invd
      00000FEF 00000000 0F 01 3E 01 00       998         invlpg  [locw]
      00000FF4 00000000 CF                   999         iret
      00000FF5 00000000 66 CF               1000         iretd
      00000FF7 00000000                     1001 jmprel2:
      00000FF7 00000000 77 FE               1002         ja      jmprel2
      00000FF9 00000000 73 FC               1003         jae     jmprel2
      00000FFB 00000000 72 FA               1004         jb      jmprel2
      00000FFD 00000000 76 F8               1005         jbe     jmprel2
      00000FFF 00000000 72 F6               1006         jc      jmprel2
      00001001 00000000 E3 F4               1007         jcxz    jmprel2
      00001003 00000000 66 E3 F1            1008         jecxz   jmprel2
      00001006 00000000 74 EF               1009         je      jmprel2
      00001008 00000000 74 ED               1010         jz      jmprel2
      0000100A 00000000 7F EB               1011         jg      jmprel2
      0000100C 00000000 7D E9               1012         jge     jmprel2
      0000100E 00000000 7C E7               1013         jl      jmprel2
      00001010 00000000 7E E5               1014         jle     jmprel2
      00001012 00000000 76 E3               1015         jna     jmprel2
      00001014 00000000 72 E1               1016         jnae    jmprel2
      00001016 00000000 73 DF               1017         jnb     jmprel2
      00001018 00000000 77 DD               1018         jnbe    jmprel2
      0000101A 00000000 73 DB               1019         jnc     jmprel2
      0000101C 00000000 75 D9               1020         jne     jmprel2
      0000101E 00000000 7E D7               1021         jng     jmprel2
      00001020 00000000 7C D5               1022         jnge    jmprel2
      00001022 00000000 7D D3               1023         jnl     jmprel2
      00001024 00000000 7F D1               1024         jnle    jmprel2
      00001026 00000000 71 CF               1025         jno     jmprel2
      00001028 00000000 7B CD               1026         jnp     jmprel2
      0000102A 00000000 79 CB               1027         jns     jmprel2
      0000102C 00000000 75 C9               1028         jnz     jmprel2
      0000102E 00000000 70 C7               1029         jo      jmprel2
      00001030 00000000 7A C5               1030         jp      jmprel2
      00001032 00000000 7A C3               1031         jpe     jmprel2
      00001034 00000000 7B C1               1032         jpo     jmprel2


                                                                allins                                                          Page 13


      Program  Variable Code              C Line Source
      -----------------------------------------------------------------------------------------------------------------------------------
      00001036 00000000 78 BF               1033         js      jmprel2
      00001038 00000000 74 BD               1034         jz      jmprel2
      0000103A 00000000 EB BB               1035         jmp     jmprel2
      0000103C 00000000 E9 C1 EF            1036         jmp     start
      0000103F 00000000 FF 26 01 00         1037         jmpm    [locw]
      00001043 00000000 66 FF 26 03 00      1038         jmpl    [locd]
      00001048 00000000 9F                  1039         lahf
      00001049 00000000 0F 02 06 01 00      1040         lar     ax,[locw]
      0000104E 00000000 66 0F 02 06 03 00   1041         lar     eax,[locd]
      00001054 00000000 8D 05               1042         lea     ax,[di]
      00001056 00000000 66 67 8D 07         1043         lea     eax,[edi]
      0000105A 00000000 C9                  1044         leave
      0000105B 00000000 66 0F 01 16 07 00   1045         lgdtd   [locq]
      00001061 00000000 66 0F 01 1E 07 00   1046         lidtd   [locq]
      00001067 00000000 0F 00 16 01 00      1047         lldt    [locw]
      0000106C 00000000 0F 01 36 01 00      1048         lmsw    [locw]
      00001071 00000000 F0                  1049         lock
      00001072 00000000 AC                  1050         lodsb
      00001073 00000000 AD                  1051         lodsw
      00001074 00000000 66 AD               1052         lodsd
      00001076 00000000                     1053 looprel2:
      00001076 00000000 E2 FE               1054         loop    looprel2
      00001078 00000000 E1 FC               1055         loope   looprel2
      0000107A 00000000 E1 FA               1056         loopz   looprel2
      0000107C 00000000 E0 F8               1057         loopne  looprel2
      0000107E 00000000 E0 F6               1058         loopnz  looprel2
      00001080 00000000 0F 03 06 01 00      1059         lsl     ax,[locw]
      00001085 00000000 66 0F 03 06 03 00   1060         lsl     eax,[locd]
      0000108B 00000000 0F 00 1E 01 00      1061         ltr     [locw]
      00001090 00000000 88 00               1062         mov     [bx+si],al
      00001092 00000000 89 00               1063         mov     [bx+si],ax
      00001094 00000000 67 66 89 04 33      1064         mov     [ebx+esi],eax
      00001099 00000000 8A 00               1065         mov     al,[bx+si]
      0000109B 00000000 8B 00               1066         mov     ax,[bx+si]
      0000109D 00000000 67 66 8B 04 33      1067         mov     eax,[ebx+esi]
      000010A2 00000000 8C 1E 01 00         1068         mov     [locw],ds
      000010A6 00000000 8E 1E 01 00         1069         mov     ds,[locw]
      000010AA 00000000 A0 00 00            1070         mov     al,[locb]
      000010AD 00000000 A1 01 00            1071         mov     ax,[locw]
      000010B0 00000000 66 A1 03 00         1072         mov     eax,[locd]
      000010B4 00000000 A2 00 00            1073         mov     [locb],al
      000010B7 00000000 A3 01 00            1074         mov     [locw],ax
      000010BA 00000000 66 A3 03 00         1075         mov     [locd],eax
      000010BE 00000000 B0 11               1076         mov     al,$11
      000010C0 00000000 B8 22 11            1077         mov     ax,$1122
      000010C3 00000000 66 B8 44 33 22 11   1078         mov     eax,$11223344
      000010C9 00000000 C6 06 00 00 11      1079         movb    [locb],$11
      000010CE 00000000 C7 06 01 00 22 11   1080         movw    [locw],$1122
      000010D4 00000000 66 C7 06 03 00 44 + 1081         movd    [locd],$11223344
      000010DD 00000000 0F 22 C0            1082         mov     cr0,eax
      000010E0 00000000 0F 20 C0            1083         mov     eax,cr0
      000010E3 00000000 0F 23 C0            1084         mov     dr0,eax
      000010E6 00000000 0F 21 C0            1085         mov     eax,dr0
      000010E9 00000000 0F 26 F0            1086         mov     tr6,eax
      000010EC 00000000 0F 24 F0            1087         mov     eax,tr6
      000010EF 00000000 A4                  1088         movsb
      000010F0 00000000 A5                  1089         movsw
      000010F1 00000000 66 A5               1090         movsd
      000010F3 00000000 0F BE 06 00 00      1091         movsxb  ax,[locb]
      000010F8 00000000 66 0F BE 06 00 00   1092         movsxb  eax,[locb]
      000010FE 00000000 66 0F BF 06 01 00   1093         movsxw  eax,[locw]
      00001104 00000000 0F B6 06 00 00      1094         movzxb  ax,[locb]
      00001109 00000000 66 0F B6 06 00 00   1095         movzxb  eax,[locb]
      0000110F 00000000 66 0F B7 06 01 00   1096         movzxw  eax,[locw]
      00001115 00000000 F6 26 00 00         1097         mulb    [locb]
      00001119 00000000 F7 26 01 00         1098         mulw    [locw]
      0000111D 00000000 66 F7 26 03 00      1099         muld    [locd]
      00001122 00000000 F6 1E 00 00         1100         negb    [locb]
      00001126 00000000 F7 1E 01 00         1101         negw    [locw]
      0000112A 00000000 66 F7 1E 03 00      1102         negd    [locd]
      0000112F 00000000 90                  1103         nop
      00001130 00000000 F6 16 00 00         1104         notb    [locb]
      00001134 00000000 F7 16 01 00         1105         notw    [locw]
      00001138 00000000 66 F7 16 03 00      1106         notd    [locd]
      0000113D 00000000 0C 11               1107         or      al,$11
      0000113F 00000000 0D 22 11            1108         or      ax,$1122
      00001142 00000000 66 0D 44 33 22 11   1109         or      eax,$11223344
      00001148 00000000 80 0E 00 00 11      1110         orb     [locb],$11
      0000114D 00000000 81 0E 01 00 22 11   1111         orw     [locw],$1122
      00001153 00000000 66 81 0E 03 00 44 + 1112         ord     [locd],$11223344
      0000115C 00000000 83 0E 01 00 11      1113         orw     [locw],$11
      00001161 00000000 66 83 0E 03 00 11   1114         ord     [locd],$11
      00001167 00000000 08 06 00 00         1115         or      [locb],al
      0000116B 00000000 09 06 01 00         1116         or      [locw],ax
      0000116F 00000000 66 09 06 03 00      1117         or      [locd],eax
      00001174 00000000 0A 26 00 00         1118         or      ah,[locb]


                                                                allins                                                          Page 14


      Program  Variable Code              C Line Source
      -----------------------------------------------------------------------------------------------------------------------------------
      00001178 00000000 0B 1E 01 00         1119         or      bx,[locw]
      0000117C 00000000 66 0B 1E 03 00      1120         or      ebx,[locd]
      00001181 00000000 E6 11               1121         out     $11,al
      00001183 00000000 E7 11               1122         out     $11,ax
      00001185 00000000 66 E7 11            1123         out     $11,eax
      00001188 00000000 EE                  1124         out     dx,al
      00001189 00000000 EF                  1125         out     dx,ax
      0000118A 00000000 66 EF               1126         out     dx,eax
      0000118C 00000000 6E                  1127         outsb
      0000118D 00000000 6F                  1128         outsw
      0000118E 00000000 66 6F               1129         outsd
      00001190 00000000 8F 06 01 00         1130         popw    [locw]
      00001194 00000000 66 8F 06 03 00      1131         popd    [locd]
      00001199 00000000 58                  1132         pop     ax
      0000119A 00000000 66 58               1133         pop     eax
      0000119C 00000000 1F                  1134         pop     ds
      0000119D 00000000 07                  1135         pop     es
      0000119E 00000000 17                  1136         pop     ss
      0000119F 00000000 0F A1               1137         pop     fs
      000011A1 00000000 0F A9               1138         pop     gs
      000011A3 00000000 61                  1139         popa
      000011A4 00000000 66 61               1140         popad
      000011A6 00000000 9D                  1141         popf
      000011A7 00000000 66 9D               1142         popfd
      000011A9 00000000 FF 36 01 00         1143         pushw   [locw]
      000011AD 00000000 66 FF 36 03 00      1144         pushd   [locd]
      000011B2 00000000 50                  1145         push    ax
      000011B3 00000000 66 50               1146         push    eax
      000011B5 00000000 66 6A 11            1147         pushd   $11
      000011B8 00000000 68 22 11            1148         pushw   $1122
      000011BB 00000000 66 68 44 33 22 11   1149         pushd   $11223344
      000011C1 00000000 0E                  1150         push    cs
      000011C2 00000000 16                  1151         push    ss
      000011C3 00000000 1E                  1152         push    ds
      000011C4 00000000 06                  1153         push    es
      000011C5 00000000 0F A0               1154         push    fs
      000011C7 00000000 0F A8               1155         push    gs
      000011C9 00000000 60                  1156         pusha
      000011CA 00000000 66 60               1157         pushad
      000011CC 00000000 9C                  1158         pushf
      000011CD 00000000 66 9C               1159         pushfd
      000011CF 00000000 D0 16 00 00         1160         rclb    [locb],1
      000011D3 00000000 D2 16 00 00         1161         rclb    [locb],cl
      000011D7 00000000 C0 16 00 00 11      1162         rclb    [locb],$11
      000011DC 00000000 D1 16 01 00         1163         rclw    [locw],1
      000011E0 00000000 D3 16 01 00         1164         rclw    [locw],cl
      000011E4 00000000 C1 16 01 00 11      1165         rclw    [locw],$11
      000011E9 00000000 66 D1 16 03 00      1166         rcld    [locd],1
      000011EE 00000000 66 D3 16 03 00      1167         rcld    [locd],cl
      000011F3 00000000 66 C1 16 03 00 11   1168         rcld    [locd],$11
      000011F9 00000000 D0 1E 00 00         1169         rcrb    [locb],1
      000011FD 00000000 D2 1E 00 00         1170         rcrb    [locb],cl
      00001201 00000000 C0 1E 00 00 11      1171         rcrb    [locb],$11
      00001206 00000000 D1 1E 01 00         1172         rcrw    [locw],1
      0000120A 00000000 D3 1E 01 00         1173         rcrw    [locw],cl
      0000120E 00000000 C1 1E 01 00 11      1174         rcrw    [locw],$11
      00001213 00000000 66 D1 1E 03 00      1175         rcrd    [locd],1
      00001218 00000000 66 D3 1E 03 00      1176         rcrd    [locd],cl
      0000121D 00000000 66 C1 1E 03 00 11   1177         rcrd    [locd],$11
      00001223 00000000 D0 06 00 00         1178         rolb    [locb],1
      00001227 00000000 D2 06 00 00         1179         rolb    [locb],cl
      0000122B 00000000 C0 06 00 00 11      1180         rolb    [locb],$11
      00001230 00000000 D1 06 01 00         1181         rolw    [locw],1
      00001234 00000000 D3 06 01 00         1182         rolw    [locw],cl
      00001238 00000000 C1 06 01 00 11      1183         rolw    [locw],$11
      0000123D 00000000 66 D1 06 03 00      1184         rold    [locd],1
      00001242 00000000 66 D3 06 03 00      1185         rold    [locd],cl
      00001247 00000000 66 C1 06 03 00 11   1186         rold    [locd],$11
      0000124D 00000000 D0 0E 00 00         1187         rorb    [locb],1
      00001251 00000000 D2 0E 00 00         1188         rorb    [locb],cl
      00001255 00000000 C0 0E 00 00 11      1189         rorb    [locb],$11
      0000125A 00000000 D1 0E 01 00         1190         rorw    [locw],1
      0000125E 00000000 D3 0E 01 00         1191         rorw    [locw],cl
      00001262 00000000 C1 0E 01 00 11      1192         rorw    [locw],$11
      00001267 00000000 66 D1 0E 03 00      1193         rord    [locd],1
      0000126C 00000000 66 D3 0E 03 00      1194         rord    [locd],cl
      00001271 00000000 66 C1 0E 03 00 11   1195         rord    [locd],$11
      00001277 00000000 F3                  1196         rep
      00001278 00000000 F3                  1197         repe
      00001279 00000000 F3                  1198         repz
      0000127A 00000000 F2                  1199         repne
      0000127B 00000000 F2                  1200         repnz
      0000127C 00000000 C3                  1201         ret
      0000127D 00000000 C2 22 11            1202         ret     $1122
      00001280 00000000 9E                  1203         sahf
      00001281 00000000 D0 26 00 00         1204         salb    [locb],1


                                                                allins                                                          Page 15


      Program  Variable Code              C Line Source
      -----------------------------------------------------------------------------------------------------------------------------------
      00001285 00000000 D2 26 00 00         1205         salb    [locb],cl
      00001289 00000000 C0 26 00 00 11      1206         salb    [locb],$11
      0000128E 00000000 D1 26 01 00         1207         salw    [locw],1
      00001292 00000000 D3 26 01 00         1208         salw    [locw],cl
      00001296 00000000 C1 26 01 00 11      1209         salw    [locw],$11
      0000129B 00000000 66 D1 26 03 00      1210         sald    [locd],1
      000012A0 00000000 66 D3 26 03 00      1211         sald    [locd],cl
      000012A5 00000000 66 C1 26 03 00 11   1212         sald    [locd],$11
      000012AB 00000000 D0 3E 00 00         1213         sarb    [locb],1
      000012AF 00000000 D2 3E 00 00         1214         sarb    [locb],cl
      000012B3 00000000 C0 3E 00 00 11      1215         sarb    [locb],$11
      000012B8 00000000 D1 3E 01 00         1216         sarw    [locw],1
      000012BC 00000000 D3 3E 01 00         1217         sarw    [locw],cl
      000012C0 00000000 C1 3E 01 00 11      1218         sarw    [locw],$11
      000012C5 00000000 66 D1 3E 03 00      1219         sard    [locd],1
      000012CA 00000000 66 D3 3E 03 00      1220         sard    [locd],cl
      000012CF 00000000 66 C1 3E 03 00 11   1221         sard    [locd],$11
      000012D5 00000000 D0 26 00 00         1222         shlb    [locb],1
      000012D9 00000000 D2 26 00 00         1223         shlb    [locb],cl
      000012DD 00000000 C0 26 00 00 11      1224         shlb    [locb],$11
      000012E2 00000000 D1 26 01 00         1225         shlw    [locw],1
      000012E6 00000000 D3 26 01 00         1226         shlw    [locw],cl
      000012EA 00000000 C1 26 01 00 11      1227         shlw    [locw],$11
      000012EF 00000000 66 D1 26 03 00      1228         shld    [locd],1
      000012F4 00000000 66 D3 26 03 00      1229         shld    [locd],cl
      000012F9 00000000 66 C1 26 03 00 11   1230         shld    [locd],$11
      000012FF 00000000 D0 2E 00 00         1231         shrb    [locb],1
      00001303 00000000 D2 2E 00 00         1232         shrb    [locb],cl
      00001307 00000000 C0 2E 00 00 11      1233         shrb    [locb],$11
      0000130C 00000000 D1 2E 01 00         1234         shrw    [locw],1
      00001310 00000000 D3 2E 01 00         1235         shrw    [locw],cl
      00001314 00000000 C1 2E 01 00 11      1236         shrw    [locw],$11
      00001319 00000000 66 D1 2E 03 00      1237         shrd    [locd],1
      0000131E 00000000 66 D3 2E 03 00      1238         shrd    [locd],cl
      00001323 00000000 66 C1 2E 03 00 11   1239         shrd    [locd],$11
      00001329 00000000 1C 11               1240         sbb     al,$11
      0000132B 00000000 1D 22 11            1241         sbb     ax,$1122
      0000132E 00000000 66 1D 44 33 22 11   1242         sbb     eax,$11223344
      00001334 00000000 80 1E 00 00 11      1243         sbbb    [locb],$11
      00001339 00000000 81 1E 01 00 22 11   1244         sbbw    [locw],$1122
      0000133F 00000000 66 81 1E 03 00 44 + 1245         sbbd    [locd],$11223344
      00001348 00000000 83 1E 01 00 11      1246         sbbw    [locw],$11
      0000134D 00000000 66 83 1E 03 00 11   1247         sbbd    [locd],$11
      00001353 00000000 18 06 00 00         1248         sbbb    [locb],al
      00001357 00000000 19 06 01 00         1249         sbbw    [locw],ax
      0000135B 00000000 66 19 06 03 00      1250         sbbd    [locd],eax
      00001360 00000000 1A 06 00 00         1251         sbb     al,[locb]
      00001364 00000000 1B 06 01 00         1252         sbb     ax,[locw]
      00001368 00000000 66 1B 06 03 00      1253         sbb     eax,[locd]
      0000136D 00000000 AE                  1254         scasb
      0000136E 00000000 AF                  1255         scasw
      0000136F 00000000 66 AF               1256         scasd
      00001371 00000000 0F 97 06 00 00      1257         seta    [locb]
      00001376 00000000 0F 93 06 00 00      1258         setae   [locb]
      0000137B 00000000 0F 92 06 00 00      1259         setb    [locb]
      00001380 00000000 0F 96 06 00 00      1260         setbe   [locb]
      00001385 00000000 0F 92 06 00 00      1261         setc    [locb]
      0000138A 00000000 0F 94 06 00 00      1262         sete    [locb]
      0000138F 00000000 0F 9F 06 00 00      1263         setg    [locb]
      00001394 00000000 0F 9D 06 00 00      1264         setge   [locb]
      00001399 00000000 0F 9C 06 00 00      1265         setl    [locb]
      0000139E 00000000 0F 9E 06 00 00      1266         setle   [locb]
      000013A3 00000000 0F 96 06 00 00      1267         setna   [locb]
      000013A8 00000000 0F 92 06 00 00      1268         setnae  [locb]
      000013AD 00000000 0F 93 06 00 00      1269         setnb   [locb]
      000013B2 00000000 0F 97 06 00 00      1270         setnbe  [locb]
      000013B7 00000000 0F 93 06 00 00      1271         setnc   [locb]
      000013BC 00000000 0F 95 06 00 00      1272         setne   [locb]
      000013C1 00000000 0F 9E 06 00 00      1273         setng   [locb]
      000013C6 00000000 0F 9C 06 00 00      1274         setnge  [locb]
      000013CB 00000000 0F 9D 06 00 00      1275         setnl   [locb]
      000013D0 00000000 0F 9F 06 00 00      1276         setnle  [locb]
      000013D5 00000000 0F 91 06 00 00      1277         setno   [locb]
      000013DA 00000000 0F 9B 06 00 00      1278         setnp   [locb]
      000013DF 00000000 0F 99 06 00 00      1279         setns   [locb]
      000013E4 00000000 0F 95 06 00 00      1280         setnz   [locb]
      000013E9 00000000 0F 90 06 00 00      1281         seto    [locb]
      000013EE 00000000 0F 9A 06 00 00      1282         setp    [locb]
      000013F3 00000000 0F 9A 06 00 00      1283         setpe   [locb]
      000013F8 00000000 0F 9B 06 00 00      1284         setpo   [locb]
      000013FD 00000000 0F 98 06 00 00      1285         sets    [locb]
      00001402 00000000 0F 94 06 00 00      1286         setz    [locb]
      00001407 00000000 66 0F 01 06 07 00   1287         sgdtd   [locq]
      0000140D 00000000 66 0F 01 0E 07 00   1288         sidtd   [locq]
      00001413 00000000 0F A4 06 01 00 11   1289         shldw   [locw],ax,$11
      00001419 00000000 66 0F A4 06 03 00 + 1290         shldd   [locd],eax,$11


                                                                allins                                                          Page 16


      Program  Variable Code              C Line Source
      -----------------------------------------------------------------------------------------------------------------------------------
      00001420 00000000 0F A5 06 01 00      1291         shldw   [locw],ax,cl
      00001425 00000000 66 0F A5 06 03 00   1292         shldd   [locd],eax,cl
      0000142B 00000000 0F AC 06 01 00 11   1293         shrdw   [locw],ax,$11
      00001431 00000000 66 0F AC 06 03 00 + 1294         shrdd   [locd],eax,$11
      00001438 00000000 0F AD 06 01 00      1295         shrdw   [locw],ax,cl
      0000143D 00000000 66 0F AD 06 03 00   1296         shrdd   [locd],eax,cl
      00001443 00000000 0F 00 06 01 00      1297         sldt    [locw]
      00001448 00000000 0F 01 26 01 00      1298         smsw    [locw]
      0000144D 00000000 F9                  1299         stc
      0000144E 00000000 FD                  1300         std
      0000144F 00000000 FB                  1301         sti
      00001450 00000000 AA                  1302         stosb
      00001451 00000000 AB                  1303         stosw
      00001452 00000000 66 AB               1304         stosd
      00001454 00000000 0F 00 0E 01 00      1305         str     [locw]
      00001459 00000000 2C 11               1306         sub     al,$11
      0000145B 00000000 2D 22 11            1307         sub     ax,$1122
      0000145E 00000000 66 2D 44 33 22 11   1308         sub     eax,$11223344
      00001464 00000000 80 2E 00 00 11      1309         subb    [locb],$11
      00001469 00000000 81 2E 01 00 22 11   1310         subw    [locw],$1122
      0000146F 00000000 66 81 2E 03 00 44 + 1311         subd    [locd],$11223344
      00001478 00000000 83 2E 01 00 11      1312         subw    [locw],$11
      0000147D 00000000 66 83 2E 03 00 11   1313         subd    [locd],$11
      00001483 00000000 28 06 00 00         1314         sub     [locb],al
      00001487 00000000 29 06 01 00         1315         sub     [locw],ax
      0000148B 00000000 66 29 06 03 00      1316         sub     [locd],eax
      00001490 00000000 2A 26 00 00         1317         sub     ah,[locb]
      00001494 00000000 2B 06 01 00         1318         sub     ax,[locw]
      00001498 00000000 66 2B 06 03 00      1319         sub     eax,[locd]
      0000149D 00000000 A8 11               1320         test    al,$11
      0000149F 00000000 A9 22 11            1321         test    ax,$1122
      000014A2 00000000 66 A9 44 33 22 11   1322         test    eax,$11223344
      000014A8 00000000 F6 06 00 00 11      1323         testb   [locb],$11
      000014AD 00000000 F7 06 01 00 22 11   1324         testw   [locw],$1122
      000014B3 00000000 66 F7 06 03 00 44 + 1325         testd   [locd],$11223344
      000014BC 00000000 84 06 00 00         1326         test    [locb],al
      000014C0 00000000 85 06 01 00         1327         test    [locw],ax
      000014C4 00000000 66 85 06 03 00      1328         test    [locd],eax
      000014C9 00000000 0F 00 26 01 00      1329         verr    [locw]
      000014CE 00000000 0F 00 2E 01 00      1330         verw    [locw]
      000014D3 00000000 9B                  1331         wait
      000014D4 00000000 0F 09               1332         wbinvd
      000014D6 00000000 0F C0 06 00 00      1333         xadd    [locb],al
      000014DB 00000000 0F C1 06 01 00      1334         xadd    [locw],ax
      000014E0 00000000 66 0F C1 06 03 00   1335         xadd    [locd],eax
      000014E6 00000000 86 06 00 00         1336         xchg    [locb],al
      000014EA 00000000 86 06 00 00         1337         xchg    al,[locb]
      000014EE 00000000 87 06 01 00         1338         xchg    [locw],ax
      000014F2 00000000 87 06 01 00         1339         xchg    ax,[locw]
      000014F6 00000000 66 87 06 03 00      1340         xchg    [locd],eax
      000014FB 00000000 66 87 06 03 00      1341         xchg    eax,[locd]
      00001500 00000000 93                  1342         xchg    ax,bx
      00001501 00000000 93                  1343         xchg    bx,ax
      00001502 00000000 66 93               1344         xchg    eax,ebx
      00001504 00000000 66 93               1345         xchg    ebx,eax
      00001506 00000000 D7                  1346         xlatb
      00001507 00000000 34 11               1347         xor     al,$11
      00001509 00000000 35 22 11            1348         xor     ax,$1122
      0000150C 00000000 66 35 44 33 22 11   1349         xor     eax,$11223344
      00001512 00000000 80 36 00 00 11      1350         xorb    [locb],$11
      00001517 00000000 81 36 01 00 22 11   1351         xorw    [locw],$1122
      0000151D 00000000 66 81 36 03 00 44 + 1352         xord    [locd],$11223344
      00001526 00000000 83 36 01 00 11      1353         xorw    [locw],$11
      0000152B 00000000 66 83 36 03 00 11   1354         xord    [locd],$11
      00001531 00000000 30 06 00 00         1355         xor     [locb],al
      00001535 00000000 31 06 01 00         1356         xor     [locw],ax
      00001539 00000000 66 31 06 03 00      1357         xor     [locd],eax
      0000153E 00000000 32 1E 00 00         1358         xor     bl,[locb]
      00001542 00000000 33 1E 01 00         1359         xor     bx,[locw]
      00001546 00000000 66 33 1E 03 00      1360         xor     ebx,[locd]
      0000154B 00000000 D9 F0               1361         f2xm1
      0000154D 00000000 D9 E1               1362         fabs
      0000154F 00000000 D8 C1               1363         fadd    st,st(1)
      00001551 00000000 DC C1               1364         fadd    st(1),st
      00001553 00000000 D8 06 03 00         1365         fadds   [locd]
      00001557 00000000 DC 06 07 00         1366         faddd   [locq]
      0000155B 00000000 DE C2               1367         faddp   st(2),st
      0000155D 00000000 DF 26 0F 00         1368         fbld    [loct]
      00001561 00000000 DF 36 0F 00         1369         fbstp   [loct]
      00001565 00000000 D9 E0               1370         fchs
      00001567 00000000 9B DB E2            1371         fclex
      0000156A 00000000 DB E2               1372         fnclex
      0000156C 00000000 D8 D1               1373         fcom    st(1)
      0000156E 00000000 D8 16 03 00         1374         fcoms   [locd]
      00001572 00000000 DC 16 07 00         1375         fcomd   [locq]
      00001576 00000000 D8 D9               1376         fcomp   st(1)


                                                                allins                                                          Page 17


      Program  Variable Code              C Line Source
      -----------------------------------------------------------------------------------------------------------------------------------
      00001578 00000000 D8 1E 03 00         1377         fcomps  [locd]
      0000157C 00000000 DC 1E 07 00         1378         fcompd  [locq]
      00001580 00000000 DE D9               1379         fcompp
      00001582 00000000 D9 FF               1380         fcos
      00001584 00000000 D9 F6               1381         fdecstp
      00001586 00000000 DC F9               1382         fdiv    st(1),st
      00001588 00000000 D8 36 03 00         1383         fdivs   [locd]
      0000158C 00000000 DC 36 07 00         1384         fdivd   [locq]
      00001590 00000000 DE F9               1385         fdivp   st(1),st
      00001592 00000000 DC F1               1386         fdivr   st(1),st
      00001594 00000000 D8 3E 03 00         1387         fdivrs  [locd]
      00001598 00000000 DC 3E 07 00         1388         fdivrd  [locq]
      0000159C 00000000 DE F1               1389         fdivrp  st(1),st
      0000159E 00000000 DD C1               1390         ffree   st(1)
      000015A0 00000000 DE 06 01 00         1391         fiaddw  [locw]
      000015A4 00000000 DA 06 03 00         1392         fiaddd  [locd]
      000015A8 00000000 DE 16 01 00         1393         ficomw  [locw]
      000015AC 00000000 DA 16 03 00         1394         ficomd  [locd]
      000015B0 00000000 DE 1E 01 00         1395         ficompw [locw]
      000015B4 00000000 DA 1E 03 00         1396         ficompd [locd]
      000015B8 00000000 DE 36 01 00         1397         fidivw  [locw]
      000015BC 00000000 DA 36 03 00         1398         fidivd  [locd]
      000015C0 00000000 DE 3E 01 00         1399         fidivrw [locw]
      000015C4 00000000 DA 3E 03 00         1400         fidivrd [locd]
      000015C8 00000000 DF 06 01 00         1401         fildw   [locw]
      000015CC 00000000 DB 06 03 00         1402         fildd   [locd]
      000015D0 00000000 DF 2E 07 00         1403         fildq   [locq]
      000015D4 00000000 DE 0E 01 00         1404         fimulw  [locw]
      000015D8 00000000 DA 0E 03 00         1405         fimuld  [locd]
      000015DC 00000000 D9 F7               1406         fincstp
      000015DE 00000000 9B DB E3            1407         finit
      000015E1 00000000 DB E3               1408         fninit
      000015E3 00000000 DF 16 01 00         1409         fistw   [locw]
      000015E7 00000000 DB 16 03 00         1410         fistd   [locd]
      000015EB 00000000 DF 1E 01 00         1411         fistpw  [locw]
      000015EF 00000000 DB 1E 03 00         1412         fistpd  [locd]
      000015F3 00000000 DF 3E 07 00         1413         fistpq  [locq]
      000015F7 00000000 DE 26 01 00         1414         fisubw  [locw]
      000015FB 00000000 DA 26 03 00         1415         fisubd  [locd]
      000015FF 00000000 DE 2E 01 00         1416         fisubrw [locw]
      00001603 00000000 DA 2E 03 00         1417         fisubrd [locd]
      00001607 00000000 D9 C1               1418         fld     st(1)
      00001609 00000000 D9 06 03 00         1419         flds    [locd]
      0000160D 00000000 DD 06 07 00         1420         fldd    [locq]
      00001611 00000000 DB 2E 0F 00         1421         fldl    [loct]
      00001615 00000000 D9 2E 01 00         1422         fldcw   [locw]
      00001619 00000000 D9 26 01 00         1423         fldenvw [locw]
      0000161D 00000000 D9 EC               1424         fldlg2
      0000161F 00000000 D9 ED               1425         fldln2
      00001621 00000000 D9 EA               1426         fldl2e
      00001623 00000000 D9 E9               1427         fldl2t
      00001625 00000000 D9 EB               1428         fldpi
      00001627 00000000 D9 EE               1429         fldz
      00001629 00000000 D9 E8               1430         fld1
      0000162B 00000000 D8 C9               1431         fmul    st,st(1)
      0000162D 00000000 D8 0E 03 00         1432         fmuls   [locd]
      00001631 00000000 DC 0E 07 00         1433         fmuld   [locq]
      00001635 00000000 DE C9               1434         fmulp   st(1),st
      00001637 00000000 D9 D0               1435         fnop
      00001639 00000000 D9 F3               1436         fpatan
      0000163B 00000000 D9 F8               1437         fprem
      0000163D 00000000 D9 F5               1438         fprem1
      0000163F 00000000 D9 F2               1439         fptan
      00001641 00000000 D9 FC               1440         frndint
      00001643 00000000 DD 26 00 00         1441         frstord [locb]
      00001647 00000000 9B DD 36 00 00      1442         fsaved  [locb]
      0000164C 00000000 DD 36 00 00         1443         fnsaved [locb]
      00001650 00000000 D9 FD               1444         fscale
      00001652 00000000 D9 FE               1445         fsin
      00001654 00000000 D9 FB               1446         fsincos
      00001656 00000000 D9 FA               1447         fsqrt
      00001658 00000000 DD D1               1448         fst     st(1)
      0000165A 00000000 D9 16 03 00         1449         fsts    [locd]
      0000165E 00000000 DD 16 07 00         1450         fstd    [locq]
      00001662 00000000 9B D9 3E 01 00      1451         fstcw   [locw]
      00001667 00000000 D9 3E 01 00         1452         fnstcw  [locw]
      0000166B 00000000 9B D9 36 00 00      1453         fstenvd [locb]
      00001670 00000000 DD D9               1454         fstp    st(1)
      00001672 00000000 D9 1E 03 00         1455         fstps   [locd]
      00001676 00000000 DD 1E 07 00         1456         fstpd   [locq]
      0000167A 00000000 DB 3E 0F 00         1457         fstpl   [loct]
      0000167E 00000000 9B DD 3E 01 00      1458         fstsw   [locw]
      00001683 00000000 DD 3E 01 00         1459         fnstsw  [locw]
      00001687 00000000 9B DF E0            1460         fstsw   ax
      0000168A 00000000 DF E0               1461         fnstsw  ax
      0000168C 00000000 D8 E1               1462         fsub    st,st(1)


                                                                allins                                                          Page 18


      Program  Variable Code              C Line Source
      -----------------------------------------------------------------------------------------------------------------------------------
      0000168E 00000000 D8 26 03 00         1463         fsubs   [locd]
      00001692 00000000 DC 26 07 00         1464         fsubd   [locq]
      00001696 00000000 DE E9               1465         fsubp   st(1),st
      00001698 00000000 D8 E9               1466         fsubr   st,st(1)
      0000169A 00000000 D8 2E 03 00         1467         fsubrs  [locd]
      0000169E 00000000 DC 2E 07 00         1468         fsubrd  [locq]
      000016A2 00000000 DE E1               1469         fsubrp  st(1),st
      000016A4 00000000 D9 E4               1470         ftst
      000016A6 00000000 DD E1               1471         fucom   st(1)
      000016A8 00000000 DD E9               1472         fucomp  st(1)
      000016AA 00000000 DA E9               1473         fucompp
      000016AC 00000000 9B                  1474         fwait
      000016AD 00000000 D9 E5               1475         fxam
      000016AF 00000000 D9 C9               1476         fxch
      000016B1 00000000 D9 F4               1477         fxtract
      000016B3 00000000 D9 F1               1478         fyl2x
      000016B5 00000000 D9 F9               1479         fyl2xp1
      000016B7 00000000 D9 F0               1480         f2xm1
      000016B9 00000000                     1481 !
      000016B9 00000000                     1482 ! Now, all the modes. Since listing the modes for each and every instruction
      000016B9 00000000                     1483 ! is not practical, we just list all the modes for a single instruction
      000016B9 00000000                     1484 ! (add). This extrapolates fairly well, since the same code is used in
      000016B9 00000000                     1485 ! every instruction.
      000016B9 00000000                     1486 !
      000016B9 00000000 04 08               1487         add     al,8
      000016BB 00000000 02 C3               1488         add     al,bl
      000016BD 00000000 02 06 00 00         1489         add     al,[locb]
      000016C1 00000000 02 04               1490         add     al,[si]
      000016C3 00000000 02 05               1491         add     al,[di]
      000016C5 00000000 02 46 00            1492         add     al,[bp]
      000016C8 00000000 02 07               1493         add     al,[bx]
      000016CA 00000000 02 44 55            1494         add     al,$55[si]
      000016CD 00000000 02 84 66 55         1495         add     al,$5566[si]
      000016D1 00000000 02 45 55            1496         add     al,$55[di]
      000016D4 00000000 02 85 66 55         1497         add     al,$5566[di]
      000016D8 00000000 02 46 55            1498         add     al,$55[bp]
      000016DB 00000000 02 86 66 55         1499         add     al,$5566[bp]
      000016DF 00000000 02 47 55            1500         add     al,$55[bx]
      000016E2 00000000 02 87 66 55         1501         add     al,$5566[bx]
      000016E6 00000000 02 00               1502         add     al,[bx+si]
      000016E8 00000000 02 01               1503         add     al,[bx+di]
      000016EA 00000000 02 02               1504         add     al,[bp+si]
      000016EC 00000000 02 03               1505         add     al,[bp+di]
      000016EE 00000000 02 40 55            1506         add     al,$55[bx+si]
      000016F1 00000000 02 41 55            1507         add     al,$55[bx+di]
      000016F4 00000000 02 42 55            1508         add     al,$55[bp+si]
      000016F7 00000000 02 43 55            1509         add     al,$55[bp+di]
      000016FA 00000000 02 80 66 55         1510         add     al,$5566[bx+si]
      000016FE 00000000 02 81 66 55         1511         add     al,$5566[bx+di]
      00001702 00000000 02 82 66 55         1512         add     al,$5566[bp+si]
      00001706 00000000 02 83 66 55         1513         add     al,$5566[bp+di]
      0000170A 00000000 00 06 00 00         1514         add     [locb],al
      0000170E 00000000 00 04               1515         add     [si],al
      00001710 00000000 00 05               1516         add     [di],al
      00001712 00000000 00 46 00            1517         add     [bp],al
      00001715 00000000 00 07               1518         add     [bx],al
      00001717 00000000 00 44 55            1519         add     $55[si],al
      0000171A 00000000 00 84 66 55         1520         add     $5566[si],al
      0000171E 00000000 00 45 55            1521         add     $55[di],al
      00001721 00000000 00 85 66 55         1522         add     $5566[di],al
      00001725 00000000 00 46 55            1523         add     $55[bp],al
      00001728 00000000 00 86 66 55         1524         add     $5566[bp],al
      0000172C 00000000 00 47 55            1525         add     $55[bx],al
      0000172F 00000000 00 87 66 55         1526         add     $5566[bx],al
      00001733 00000000 00 00               1527         add     [bx+si],al
      00001735 00000000 00 01               1528         add     [bx+di],al
      00001737 00000000 00 02               1529         add     [bp+si],al
      00001739 00000000 00 03               1530         add     [bp+di],al
      0000173B 00000000 00 40 55            1531         add     $55[bx+si],al
      0000173E 00000000 00 41 55            1532         add     $55[bx+di],al
      00001741 00000000 00 42 55            1533         add     $55[bp+si],al
      00001744 00000000 00 43 55            1534         add     $55[bp+di],al
      00001747 00000000 00 80 66 55         1535         add     $5566[bx+si],al
      0000174B 00000000 00 81 66 55         1536         add     $5566[bx+di],al
      0000174F 00000000 00 82 66 55         1537         add     $5566[bp+si],al
      00001753 00000000 00 83 66 55         1538         add     $5566[bp+di],al
      00001757 00000000 05 08 00            1539         add     ax,8
      0000175A 00000000 03 C3               1540         add     ax,bx
      0000175C 00000000 03 06 01 00         1541         add     ax,[locw]
      00001760 00000000 03 04               1542         add     ax,[si]
      00001762 00000000 03 05               1543         add     ax,[di]
      00001764 00000000 03 46 00            1544         add     ax,[bp]
      00001767 00000000 03 07               1545         add     ax,[bx]
      00001769 00000000 03 44 55            1546         add     ax,$55[si]
      0000176C 00000000 03 84 66 55         1547         add     ax,$5566[si]
      00001770 00000000 03 45 55            1548         add     ax,$55[di]


                                                                allins                                                          Page 19


      Program  Variable Code              C Line Source
      -----------------------------------------------------------------------------------------------------------------------------------
      00001773 00000000 03 85 66 55         1549         add     ax,$5566[di]
      00001777 00000000 03 46 55            1550         add     ax,$55[bp]
      0000177A 00000000 03 86 66 55         1551         add     ax,$5566[bp]
      0000177E 00000000 03 47 55            1552         add     ax,$55[bx]
      00001781 00000000 03 87 66 55         1553         add     ax,$5566[bx]
      00001785 00000000 03 00               1554         add     ax,[bx+si]
      00001787 00000000 03 01               1555         add     ax,[bx+di]
      00001789 00000000 03 02               1556         add     ax,[bp+si]
      0000178B 00000000 03 03               1557         add     ax,[bp+di]
      0000178D 00000000 03 40 55            1558         add     ax,$55[bx+si]
      00001790 00000000 03 41 55            1559         add     ax,$55[bx+di]
      00001793 00000000 03 42 55            1560         add     ax,$55[bp+si]
      00001796 00000000 03 43 55            1561         add     ax,$55[bp+di]
      00001799 00000000 03 80 66 55         1562         add     ax,$5566[bx+si]
      0000179D 00000000 03 81 66 55         1563         add     ax,$5566[bx+di]
      000017A1 00000000 03 82 66 55         1564         add     ax,$5566[bp+si]
      000017A5 00000000 03 83 66 55         1565         add     ax,$5566[bp+di]
      000017A9 00000000 01 06 01 00         1566         add     [locw],ax
      000017AD 00000000 01 04               1567         add     [si],ax
      000017AF 00000000 01 05               1568         add     [di],ax
      000017B1 00000000 01 46 00            1569         add     [bp],ax
      000017B4 00000000 01 07               1570         add     [bx],ax
      000017B6 00000000 01 44 55            1571         add     $55[si],ax
      000017B9 00000000 01 84 66 55         1572         add     $5566[si],ax
      000017BD 00000000 01 45 55            1573         add     $55[di],ax
      000017C0 00000000 01 85 66 55         1574         add     $5566[di],ax
      000017C4 00000000 01 46 55            1575         add     $55[bp],ax
      000017C7 00000000 01 86 66 55         1576         add     $5566[bp],ax
      000017CB 00000000 01 47 55            1577         add     $55[bx],ax
      000017CE 00000000 01 87 66 55         1578         add     $5566[bx],ax
      000017D2 00000000 01 00               1579         add     [bx+si],ax
      000017D4 00000000 01 01               1580         add     [bx+di],ax
      000017D6 00000000 01 02               1581         add     [bp+si],ax
      000017D8 00000000 01 03               1582         add     [bp+di],ax
      000017DA 00000000 01 40 55            1583         add     $55[bx+si],ax
      000017DD 00000000 01 41 55            1584         add     $55[bx+di],ax
      000017E0 00000000 01 42 55            1585         add     $55[bp+si],ax
      000017E3 00000000 01 43 55            1586         add     $55[bp+di],ax
      000017E6 00000000 01 80 66 55         1587         add     $5566[bx+si],ax
      000017EA 00000000 01 81 66 55         1588         add     $5566[bx+di],ax
      000017EE 00000000 01 82 66 55         1589         add     $5566[bp+si],ax
      000017F2 00000000 01 83 66 55         1590         add     $5566[bp+di],ax
      000017F6 00000000 66 83 C0 08         1591         add     eax,8
      000017FA 00000000 66 03 C3            1592         add     eax,ebx
      000017FD 00000000 66 03 06 03 00      1593         add     eax,[locd]
      00001802 00000000 66 67 03 00         1594         add     eax,[eax]
      00001806 00000000 66 67 03 04 85 00 + 1595         add     eax,[eax*4]
      0000180F 00000000 66 67 03 40 55      1596         add     eax,$55[eax]
      00001814 00000000 66 67 03 80 88 77 + 1597         add     eax,$55667788[eax]
      0000181C 00000000 66 67 03 04 85 55 + 1598         add     eax,$55[eax*4]
      00001825 00000000 66 67 03 04 85 88 + 1599         add     eax,$55667788[eax*4]
      0000182E 00000000 66 67 03 04 18      1600         add     eax,[eax+ebx]
      00001833 00000000 66 67 03 44 18 55   1601         add     eax,$55[eax+ebx]
      00001839 00000000 66 67 03 84 18 88 + 1602         add     eax,$55667788[eax+ebx]
      00001842 00000000 66 67 03 04 98      1603         add     eax,[eax+ebx*4]
      00001847 00000000 66 67 03 44 98 55   1604         add     eax,$55[eax+ebx*4]
      0000184D 00000000 66 67 03 84 98 88 + 1605         add     eax,$55667788[eax+ebx*4]
      00001856 00000000 66 03 D8            1606         add     ebx,eax
      00001859 00000000 66 01 06 03 00      1607         add     [locd],eax
      0000185E 00000000 66 67 01 00         1608         add     [eax],eax
      00001862 00000000 66 67 01 40 55      1609         add     $55[eax],eax
      00001867 00000000 66 67 01 80 88 77 + 1610         add     $55667788[eax],eax
      0000186F 00000000 66 67 01 04 18      1611         add     [eax+ebx],eax
      00001874 00000000 66 67 01 44 18 55   1612         add     $55[eax+ebx],eax
      0000187A 00000000 66 67 01 84 18 88 + 1613         add     $55667788[eax+ebx],eax
      00001883 00000000 66 67 01 04 98      1614         add     [eax+ebx*4],eax
      00001888 00000000 66 67 01 44 98 55   1615         add     $55[eax+ebx*4],eax
      0000188E 00000000 66 67 01 84 98 88 + 1616         add     $55667788[eax+ebx*4],eax
      00001897 00000000                     1617 !
      00001897 00000000                     1618 ! Other instructions. These instructions are included here because
      00001897 00000000                     1619 ! they are in a different format from other assemblers, or are
      00001897 00000000                     1620 ! unimplemented by other assemblers. They should eventually be
      00001897 00000000                     1621 ! merged with the normal instructions.
      00001897 00000000                     1622 !
      00001897 00000000 67 9A 66 55 44 33 + 1623         callf   $1122,$33445566
      0000189F 00000000 9A 44 33 22 11      1624         callmf  $1122,$3344
      000018A4 00000000 67 9A 66 55 44 33 + 1625         calllf  $1122,$33445566
      000018AC 00000000 67 EA 66 55 44 33 + 1626         jmpf    $1122,$33445566
      000018B4 00000000 EA 44 33 22 11      1627         jmpmf   $1122,$3344
      000018B9 00000000 67 EA 66 55 44 33 + 1628         jmplf   $1122,$33445566
      000018C1 00000000 FF 1E 22 11         1629         callf   [$1122]
      000018C5 00000000 FF 1E 22 11         1630         callmf  [$1122]
      000018C9 00000000 67 FF 1D 44 33 22 + 1631         calllf  [$11223344]
      000018D0 00000000 FF 2E 22 11         1632         jmpf    [$1122]
      000018D4 00000000 FF 2E 22 11         1633         jmpmf   [$1122]
      000018D8 00000000 67 FF 2D 44 33 22 + 1634         jmplf   [$11223344]


                                                                allins                                                          Page 20


      Program  Variable Code              C Line Source
      -----------------------------------------------------------------------------------------------------------------------------------
      000018DF 00000000 0F B5 06 22 11      1635         lgs     ax,[$1122]
      000018E4 00000000 66 67 0F B5 05 44 + 1636         lgs     eax,[$11223344]
      000018ED 00000000 0F B2 06 22 11      1637         lss     ax,[$1122]
      000018F2 00000000 66 67 0F B2 05 44 + 1638         lss     eax,[$11223344]
      000018FB 00000000 0F B4 06 22 11      1639         lfs     ax,[$1122]
      00001900 00000000 66 67 0F B4 05 44 + 1640         lfs     eax,[$11223344]
      00001909 00000000 C5 06 22 11         1641         lds     ax,[$1122]
      0000190D 00000000 66 67 C5 05 44 33 + 1642         lds     eax,[$11223344]
      00001915 00000000 C4 06 22 11         1643         les     ax,[$1122]
      00001919 00000000 66 67 C4 05 44 33 + 1644         les     eax,[$11223344]
      00001921 00000000 65                  1645         gs
      00001922 00000000 36                  1646         ss
      00001923 00000000 64                  1647         fs
      00001924 00000000 3E                  1648         ds
      00001925 00000000 26                  1649         es
      00001926 00000000 0F C7 06 22 11      1650         cmpxchg8b [$1122]
      0000192B 00000000 67 0F C7 05 44 33 + 1651         cmpxchg8b [$11223344]
      00001933 00000000 0F A2               1652         cpuid
      00001935 00000000 0F 32               1653         rdmsr
      00001937 00000000 0F 30               1654         wrmsr
      00001939 00000000 0F AA               1655         rsm
      0000193B 00000000                     1656 !
      0000193B 00000000                     1657 ! Finally, these instructions are specific to specific CPUs, and
      0000193B 00000000                     1658 ! exist in a case all their own
      0000193B 00000000                     1659 !
      0000193B 00000000                     1660         m86
      0000193B 00000000 9B DB E1            1661         fdisi
      0000193E 00000000 DB E1               1662         fndisi
      00001940 00000000 9B DB E0            1663         feni
      00001943 00000000 DB E0               1664         fneni
      00001945 00000000 DB E3             + 1665 
      00001945 00000000                   + 1666         m286
      00001945 00000000                   + 1667         fsetpm
