

                                                                allins                                                          Page 1


      Program  Variable Code              C Line Source
      -----------------------------------------------------------------------------------------------------------------------------------
      00000000 00000000                        1 !!!!!!!!!!!!!!!!!!!!!!!!!!!!!!!!!!!!!!!!!!!!!!!!!!!!!!!!!!!!!!!!!!!!!!!!!!!!!!!
      00000000 00000000                        2 !                                                                             !
      00000000 00000000                        3 !                           8051 ASSEMBLER TEST FILE                          !
      00000000 00000000                        4 !                                                                             !
      00000000 00000000                        5 ! Contains all of the 8051 operations possible, in opcode numerical order.    !
      00000000 00000000                        6 ! Listing in this way has two advantages. One, it is easier to look up by     !
      00000000 00000000                        7 ! opcode, and two, it can be sorted into alphabetical order, whereas the      !
      00000000 00000000                        8 ! converse is not possible.                                                   !
      00000000 00000000                        9 ! To check proper assembler operation, this file is assembled, a listing      !
      00000000 00000000                       10 ! containing all generated code is made, and the result hand checked, or      !
      00000000 00000000                       11 ! compared to a previous file.                                                !
      00000000 00000000                       12 !                                                                             !
      00000000 00000000                       13 !!!!!!!!!!!!!!!!!!!!!!!!!!!!!!!!!!!!!!!!!!!!!!!!!!!!!!!!!!!!!!!!!!!!!!!!!!!!!!!
      00000000 00000000                       14 
      00000000 00000000 00                    15         nop
      00000001 00000000 02 98 54              16         ljmp    $9854
      00000004 00000000 03                    17         rr a
      00000005 00000000 04                    18         inc     a
      00000006 00000000 05 00                 19         inc     $00
      00000008 00000000 06                    20         inc     @r0
      00000009 00000000 07                    21         inc     @r1
      0000000A 00000000 08                    22         inc     r0
      0000000B 00000000 09                    23         inc     r1
      0000000C 00000000 0A                    24         inc     r2
      0000000D 00000000 0B                    25         inc     r3
      0000000E 00000000 0C                    26         inc     r4
      0000000F 00000000 0D                    27         inc     r5
      00000010 00000000 0E                    28         inc     r6
      00000011 00000000 0F                    29         inc     r7
      00000012 00000000 10 00 FD              30         jbc     $00,_
      00000015 00000000 12 65 43              31         lcall   $6543
      00000018 00000000 13                    32         rrc a
      00000019 00000000 14                    33         dec     a
      0000001A 00000000 15 00                 34         dec     $00
      0000001C 00000000 16                    35         dec     @r0
      0000001D 00000000 17                    36         dec     @r1
      0000001E 00000000 18                    37         dec     r0
      0000001F 00000000 19                    38         dec     r1
      00000020 00000000 1A                    39         dec     r2
      00000021 00000000 1B                    40         dec     r3
      00000022 00000000 1C                    41         dec     r4
      00000023 00000000 1D                    42         dec     r5
      00000024 00000000 1E                    43         dec     r6
      00000025 00000000 1F                    44         dec     r7
      00000026 00000000 20 00 FD              45         jb      $00,_
      00000029 00000000 22                    46         ret
      0000002A 00000000 23                    47         rl a
      0000002B 00000000 24 FF                 48         add     a,#$ff
      0000002D 00000000 25 FF                 49         add     a,$ff
      0000002F 00000000 26                    50         add     a,@r0
      00000030 00000000 27                    51         add     a,@r1
      00000031 00000000 28                    52         add     a,r0         
      00000032 00000000 29                    53         add     a,r1    
      00000033 00000000 2A                    54         add     a,r2
      00000034 00000000 2B                    55         add     a,r3
      00000035 00000000 2C                    56         add     a,r4
      00000036 00000000 2D                    57         add     a,r5
      00000037 00000000 2E                    58         add     a,r6
      00000038 00000000 2F                    59         add     a,r7
      00000039 00000000 30 00 FD              60         jnb     $00,_
      0000003C 00000000 31 23                 61         acall   $123
      0000003E 00000000 32                    62         reti
      0000003F 00000000 33                    63         rlc a
      00000040 00000000 34 FF                 64         addc    a,#$ff
      00000042 00000000 35 FF                 65         addc    a,$ff
      00000044 00000000 36                    66         addc    a,@r0
      00000045 00000000 37                    67         addc    a,@r1
      00000046 00000000 38                    68         addc    a,r0
      00000047 00000000 39                    69         addc    a,r1
      00000048 00000000 3A                    70         addc    a,r2
      00000049 00000000 3B                    71         addc    a,r3
      0000004A 00000000 3C                    72         addc    a,r4
      0000004B 00000000 3D                    73         addc    a,r5
      0000004C 00000000 3E                    74         addc    a,r6
      0000004D 00000000 3F                    75         addc    a,r7
      0000004E 00000000 40 FE                 76         jc      _
      00000050 00000000 42 00                 77         orl     $00,a
      00000052 00000000 43 00 FF              78         orl     $00,#$ff
      00000055 00000000 44 FF                 79         orl     a,#$ff
      00000057 00000000 45 FF                 80         orl     a,$ff
      00000059 00000000 46                    81         orl     a,@r0
      0000005A 00000000 47                    82         orl     a,@r1
      0000005B 00000000 48                    83         orl     a,r0
      0000005C 00000000 49                    84         orl     a,r1
      0000005D 00000000 4A                    85         orl     a,r2
      0000005E 00000000 4B                    86         orl     a,r3


                                                                allins                                                          Page 2


      Program  Variable Code              C Line Source
      -----------------------------------------------------------------------------------------------------------------------------------
      0000005F 00000000 4C                    87         orl     a,r4
      00000060 00000000 4D                    88         orl     a,r5
      00000061 00000000 4E                    89         orl     a,r6
      00000062 00000000 4F                    90         orl     a,r7
      00000063 00000000 50 FE                 91         jnc     _
      00000065 00000000 52 00                 92         anl     $00,a
      00000067 00000000 52 FF                 93         anl     $ff,a
      00000069 00000000 53 00 FF              94         anl     $00,#$ff
      0000006C 00000000 53 FF FF              95         anl     $ff,#$ff
      0000006F 00000000 54 FF                 96         anl     a,#$ff
      00000071 00000000 55 FF                 97         anl     a,$ff
      00000073 00000000 56                    98         anl     a,@r0
      00000074 00000000 57                    99         anl     a,@r1
      00000075 00000000 58                   100         anl     a,r0
      00000076 00000000 59                   101         anl     a,r1
      00000077 00000000 5A                   102         anl     a,r2
      00000078 00000000 5B                   103         anl     a,r3
      00000079 00000000 5C                   104         anl     a,r4
      0000007A 00000000 5D                   105         anl     a,r5
      0000007B 00000000 5E                   106         anl     a,r6
      0000007C 00000000 5F                   107         anl     a,r7
      0000007D 00000000 60 FE                108         jz      _
      0000007F 00000000 62 00                109         xrl     $00,a
      00000081 00000000 63 00 FF             110         xrl     $00,#$ff
      00000084 00000000 64 FF                111         xrl     a,#$ff
      00000086 00000000 65 FF                112         xrl     a,$ff
      00000088 00000000 66                   113         xrl     a,@r0
      00000089 00000000 67                   114         xrl     a,@r1
      0000008A 00000000 68                   115         xrl     a,r0
      0000008B 00000000 69                   116         xrl     a,r1
      0000008C 00000000 6A                   117         xrl     a,r2
      0000008D 00000000 6B                   118         xrl     a,r3
      0000008E 00000000 6C                   119         xrl     a,r4
      0000008F 00000000 6D                   120         xrl     a,r5
      00000090 00000000 6E                   121         xrl     a,r6
      00000091 00000000 6F                   122         xrl     a,r7
      00000092 00000000 70 FE                123         jnz     _
      00000094 00000000 72 FF                124         orl     c,$ff
      00000096 00000000 73                   125         jmp     @a+dptr
      00000097 00000000 74 00                126         mov     a,#$00
      00000099 00000000 75 00 00             127         mov     $00,#$00
      0000009C 00000000 76 00                128         mov     @r0,#$00
      0000009E 00000000 77 00                129         mov     @r1,#$00
      000000A0 00000000 79 00                130         mov     r1,#$00
      000000A2 00000000 7A 00                131         mov     r2,#$00
      000000A4 00000000 7B 00                132         mov     r3,#$00
      000000A6 00000000 7C 00                133         mov     r4,#$00
      000000A8 00000000 7D 00                134         mov     r5,#$00
      000000AA 00000000 7E 00                135         mov     r6,#$00
      000000AC 00000000 7F 00                136         mov     r7,#$00
      000000AE 00000000 80 FE                137         sjmp    _
      000000B0 00000000 81 56                138         ajmp    $456
      000000B2 00000000 82 FF                139         anl     c,$ff
      000000B4 00000000 83                   140         movc    a,@a+pc
      000000B5 00000000 84                   141         div     ab
      000000B6 00000000 85 00 00             142         mov     $00,$00
      000000B9 00000000 86 00                143         mov     $00,@r0
      000000BB 00000000 87 00                144         mov     $00,@r1
      000000BD 00000000 88 00                145         mov     $00,r0
      000000BF 00000000 89 00                146         mov     $00,r1
      000000C1 00000000 8A 00                147         mov     $00,r2
      000000C3 00000000 8B 00                148         mov     $00,r3
      000000C5 00000000 8C 00                149         mov     $00,r4
      000000C7 00000000 8D 00                150         mov     $00,r5
      000000C9 00000000 8E 00                151         mov     $00,r6
      000000CB 00000000 8F 00                152         mov     $00,r7
      000000CD 00000000 90 00 FF             153         mov     dptr,#$00ff
      000000D0 00000000 92 00                154         mov     $00,c
      000000D2 00000000 93                   155         movc    a,@a+dptr
      000000D3 00000000 94 FF                156         subb    a,#$ff
      000000D5 00000000 95 FF                157         subb    a,$ff
      000000D7 00000000 96                   158         subb    a,@r0
      000000D8 00000000 97                   159         subb    a,@r1
      000000D9 00000000 98                   160         subb    a,r0       
      000000DA 00000000 99                   161         subb    a,r1       
      000000DB 00000000 9A                   162         subb    a,r2
      000000DC 00000000 9B                   163         subb    a,r3
      000000DD 00000000 9C                   164         subb    a,r4
      000000DE 00000000 9D                   165         subb    a,r5
      000000DF 00000000 9E                   166         subb    a,r6
      000000E0 00000000 9F                   167         subb    a,r7
      000000E1 00000000 A0 FF                168         orl     c,/$ff
      000000E3 00000000 A2 00                169         mov     c,$00
      000000E5 00000000 A3                   170         inc     dptr
      000000E6 00000000 A4                   171         mul     ab
      000000E7 00000000 A6 00                172         mov     @r0,$00


                                                                allins                                                          Page 3


      Program  Variable Code              C Line Source
      -----------------------------------------------------------------------------------------------------------------------------------
      000000E9 00000000 A7 00                173         mov     @r1,$00
      000000EB 00000000 A8 00                174         mov     r0,$00
      000000ED 00000000 A9 00                175         mov     r1,$00
      000000EF 00000000 AA 00                176         mov     r2,$00
      000000F1 00000000 AB 00                177         mov     r3,$00
      000000F3 00000000 AC 00                178         mov     r4,$00
      000000F5 00000000 AD 00                179         mov     r5,$00
      000000F7 00000000 AE 00                180         mov     r6,$00
      000000F9 00000000 AF 00                181         mov     r7,$00
      000000FB 00000000 B0 FF                182         anl     c,/$ff
      000000FD 00000000 B2 00                183         cpl     $00
      000000FF 00000000 B3                   184         cpl     c
      00000100 00000000 B4 00 FD             185         cjne    a,#$00,_
      00000103 00000000 B5 00 FD             186         cjne    a,$00,_
      00000106 00000000 B6 00 FD             187         cjne    @r0,#$00,_
      00000109 00000000 B7 FF FD             188         cjne    @r1,#$ff,_
      0000010C 00000000 B8 00 FD             189         cjne    r0,#$00,_
      0000010F 00000000 B9 12 FD             190         cjne    r1,#$12,_
      00000112 00000000 BA 34 FD             191         cjne    r2,#$34,_
      00000115 00000000 BB 56 FD             192         cjne    r3,#$56,_
      00000118 00000000 BC 78 FD             193         cjne    r4,#$78,_
      0000011B 00000000 BD 91 FD             194         cjne    r5,#$91,_
      0000011E 00000000 BE 23 FD             195         cjne    r6,#$23,_
      00000121 00000000 BF FF FD             196         cjne    r7,#$ff,_
      00000124 00000000 C0 00                197         push    $00
      00000126 00000000 C2 00                198         clr     $00
      00000128 00000000 C3                   199         clr     c
      00000129 00000000 C4                   200         swap    a
      0000012A 00000000 C5 00                201         xch     a,$00
      0000012C 00000000 C6                   202         xch     a,@r0
      0000012D 00000000 C7                   203         xch     a,@r1
      0000012E 00000000 C8                   204         xch     a,r0
      0000012F 00000000 C9                   205         xch     a,r1
      00000130 00000000 CA                   206         xch     a,r2
      00000131 00000000 CB                   207         xch     a,r3
      00000132 00000000 CC                   208         xch     a,r4
      00000133 00000000 CD                   209         xch     a,r5
      00000134 00000000 CE                   210         xch     a,r6
      00000135 00000000 CF                   211         xch     a,r7
      00000136 00000000 D0 00                212         pop     $00
      00000138 00000000 D2 FF                213         setb    $ff
      0000013A 00000000 D3                   214         setb    c
      0000013B 00000000 D4                   215         da      a
      0000013C 00000000 D5 00 FD             216         djnz    $00,_
      0000013F 00000000 D6                   217         xchd    a,@r0
      00000140 00000000 D7                   218         xchd    a,@r1
      00000141 00000000 D8 FE                219         djnz    r0,_
      00000143 00000000 D9 FE                220         djnz    r1,_
      00000145 00000000 DA FE                221         djnz    r2,_
      00000147 00000000 DB FE                222         djnz    r3,_
      00000149 00000000 DC FE                223         djnz    r4,_
      0000014B 00000000 DD FE                224         djnz    r5,_
      0000014D 00000000 DE FE                225         djnz    r6,_
      0000014F 00000000 DF FE                226         djnz    r7,_
      00000151 00000000 E0                   227         movx    a,@dptr
      00000152 00000000 E2                   228         movx    a,@r0
      00000153 00000000 E3                   229         movx    a,@r1
      00000154 00000000 E4                   230         clr     a
      00000155 00000000 E5 00                231         mov     a,$00
      00000157 00000000 E6                   232         mov     a,@r0
      00000158 00000000 E7                   233         mov     a,@r1
      00000159 00000000 E8                   234         mov     a,r0
      0000015A 00000000 E9                   235         mov     a,r1
      0000015B 00000000 EA                   236         mov     a,r2
      0000015C 00000000 EB                   237         mov     a,r3
      0000015D 00000000 EC                   238         mov     a,r4
      0000015E 00000000 ED                   239         mov     a,r5
      0000015F 00000000 EE                   240         mov     a,r6
      00000160 00000000 EF                   241         mov     a,r7
      00000161 00000000 F0                   242         movx    @dptr,a
      00000162 00000000 F2                   243         movx    @r0,a
      00000163 00000000 F3                   244         movx    @r1,a
      00000164 00000000 F4                   245         cpl     a
      00000165 00000000 F5 00                246         mov     $00,a
      00000167 00000000 F6                   247         mov     @r0,a
      00000168 00000000 F7                   248         mov     @r1,a
      00000169 00000000 F8                   249         mov     r0,a
      0000016A 00000000 F9                   250         mov     r1,a
      0000016B 00000000 FA                   251         mov     r2,a
      0000016C 00000000 FB                   252         mov     r3,a
      0000016D 00000000 FC                   253         mov     r4,a
      0000016E 00000000 FD                   254         mov     r5,a
      0000016F 00000000 FE                   255         mov     r6,a
      00000170 00000000 FF                +  256         mov     r7,a
